ARM GAS  C:\Users\iron\AppData\Local\Temp\ccVrLRQd.s 			page 1


   1              		.syntax unified
   2              		.cpu cortex-m0
   3              		.fpu softvfp
   4              		.eabi_attribute 20, 1
   5              		.eabi_attribute 21, 1
   6              		.eabi_attribute 23, 3
   7              		.eabi_attribute 24, 1
   8              		.eabi_attribute 25, 1
   9              		.eabi_attribute 26, 1
  10              		.eabi_attribute 30, 1
  11              		.eabi_attribute 34, 0
  12              		.eabi_attribute 18, 4
  13              		.thumb
  14              		.syntax unified
  15              		.file	"imu.c"
  16              		.text
  17              	.Ltext0:
  18              		.cfi_sections	.debug_frame
  19              		.global	__aeabi_d2uiz
  20              		.section	.text.EBIMU_send_command,"ax",%progbits
  21              		.align	2
  22              		.global	EBIMU_send_command
  23              		.code	16
  24              		.thumb_func
  25              		.type	EBIMU_send_command, %function
  26              	EBIMU_send_command:
  27              	.LFB36:
  28              		.file 1 "imu.c"
   1:imu.c         **** #include <stdio.h>
   2:imu.c         **** 
   3:imu.c         **** #include "imu.h"
   4:imu.c         **** 
   5:imu.c         **** void EBIMU_send_command(uint8 cmd, double data)
   6:imu.c         **** {
  29              		.loc 1 6 0
  30              		.cfi_startproc
  31              		@ args = 0, pretend = 0, frame = 64
  32              		@ frame_needed = 0, uses_anonymous_args = 0
  33              	.LVL0:
  34 0000 30B5     		push	{r4, r5, lr}
  35              		.cfi_def_cfa_offset 12
  36              		.cfi_offset 4, -12
  37              		.cfi_offset 5, -8
  38              		.cfi_offset 14, -4
  39 0002 91B0     		sub	sp, sp, #68
  40              		.cfi_def_cfa_offset 80
  41 0004 1D00     		movs	r5, r3
   7:imu.c         ****     char str[64];
   8:imu.c         ****     
   9:imu.c         ****     switch (cmd)
  42              		.loc 1 9 0
  43 0006 3428     		cmp	r0, #52
  44 0008 00D9     		bls	.LCB15
  45 000a 2AE2     		b	.L2	@long jump
  46              	.LCB15:
  47 000c 8000     		lsls	r0, r0, #2
  48              	.LVL1:
ARM GAS  C:\Users\iron\AppData\Local\Temp\ccVrLRQd.s 			page 2


  49 000e DB4B     		ldr	r3, .L61
  50 0010 1B58     		ldr	r3, [r3, r0]
  51 0012 9F46     		mov	pc, r3
  52              		.section	.rodata
  53              		.align	2
  54              	.L4:
  55 0000 14000000 		.word	.L3
  56 0004 28000000 		.word	.L5
  57 0008 3C000000 		.word	.L6
  58 000c 50000000 		.word	.L7
  59 0010 64000000 		.word	.L8
  60 0014 78000000 		.word	.L9
  61 0018 8C000000 		.word	.L10
  62 001c A0000000 		.word	.L11
  63 0020 B4000000 		.word	.L12
  64 0024 C8000000 		.word	.L13
  65 0028 DC000000 		.word	.L14
  66 002c F0000000 		.word	.L15
  67 0030 04010000 		.word	.L16
  68 0034 18010000 		.word	.L17
  69 0038 2C010000 		.word	.L18
  70 003c 40010000 		.word	.L19
  71 0040 54010000 		.word	.L20
  72 0044 68010000 		.word	.L21
  73 0048 7C010000 		.word	.L22
  74 004c 88010000 		.word	.L23
  75 0050 9C010000 		.word	.L24
  76 0054 A8010000 		.word	.L25
  77 0058 BC010000 		.word	.L26
  78 005c D0010000 		.word	.L27
  79 0060 DC010000 		.word	.L28
  80 0064 E8010000 		.word	.L29
  81 0068 FC010000 		.word	.L30
  82 006c 10020000 		.word	.L31
  83 0070 1C020000 		.word	.L32
  84 0074 30020000 		.word	.L33
  85 0078 3C020000 		.word	.L34
  86 007c 48020000 		.word	.L35
  87 0080 5A020000 		.word	.L36
  88 0084 68020000 		.word	.L37
  89 0088 76020000 		.word	.L38
  90 008c 84020000 		.word	.L39
  91 0090 92020000 		.word	.L40
  92 0094 A4020000 		.word	.L41
  93 0098 AE020000 		.word	.L42
  94 009c BC020000 		.word	.L43
  95 00a0 CE020000 		.word	.L44
  96 00a4 DC020000 		.word	.L45
  97 00a8 EE020000 		.word	.L46
  98 00ac 00030000 		.word	.L47
  99 00b0 12030000 		.word	.L48
 100 00b4 1C030000 		.word	.L49
 101 00b8 2E030000 		.word	.L50
 102 00bc 3C030000 		.word	.L51
 103 00c0 50030000 		.word	.L52
 104 00c4 5A030000 		.word	.L53
 105 00c8 6C030000 		.word	.L54
ARM GAS  C:\Users\iron\AppData\Local\Temp\ccVrLRQd.s 			page 3


 106 00cc 4C040000 		.word	.L55
 107 00d0 56040000 		.word	.L56
 108              		.section	.text.EBIMU_send_command
 109              	.L3:
  10:imu.c         ****     {
  11:imu.c         ****         case SET_BAUDRATE:
  12:imu.c         ****             sprintf(str, "<sb%d>", (uint8)data);
 110              		.loc 1 12 0
 111 0014 1000     		movs	r0, r2
 112 0016 2900     		movs	r1, r5
 113 0018 FFF7FEFF 		bl	__aeabi_d2uiz
 114              	.LVL2:
 115 001c C2B2     		uxtb	r2, r0
 116 001e D849     		ldr	r1, .L61+4
 117 0020 6846     		mov	r0, sp
 118 0022 FFF7FEFF 		bl	sprintf
 119              	.LVL3:
  13:imu.c         ****             break;
 120              		.loc 1 13 0
 121 0026 1CE2     		b	.L2
 122              	.LVL4:
 123              	.L5:
  14:imu.c         ****         case SET_OUTPUT_RATE:
  15:imu.c         ****             sprintf(str, "<sor%d>", (uint16)data);
 124              		.loc 1 15 0
 125 0028 1000     		movs	r0, r2
 126 002a 2900     		movs	r1, r5
 127 002c FFF7FEFF 		bl	__aeabi_d2uiz
 128              	.LVL5:
 129 0030 82B2     		uxth	r2, r0
 130 0032 D449     		ldr	r1, .L61+8
 131 0034 6846     		mov	r0, sp
 132 0036 FFF7FEFF 		bl	sprintf
 133              	.LVL6:
  16:imu.c         ****             break;
 134              		.loc 1 16 0
 135 003a 12E2     		b	.L2
 136              	.LVL7:
 137              	.L6:
  17:imu.c         ****         case SET_OUTPUT_CODE:
  18:imu.c         ****             sprintf(str, "<soc%d>", (uint8)data);
 138              		.loc 1 18 0
 139 003c 1000     		movs	r0, r2
 140 003e 2900     		movs	r1, r5
 141 0040 FFF7FEFF 		bl	__aeabi_d2uiz
 142              	.LVL8:
 143 0044 C2B2     		uxtb	r2, r0
 144 0046 D049     		ldr	r1, .L61+12
 145 0048 6846     		mov	r0, sp
 146 004a FFF7FEFF 		bl	sprintf
 147              	.LVL9:
  19:imu.c         ****             break;
 148              		.loc 1 19 0
 149 004e 08E2     		b	.L2
 150              	.LVL10:
 151              	.L7:
  20:imu.c         ****         case SET_OUTPUT_FORMAT:
ARM GAS  C:\Users\iron\AppData\Local\Temp\ccVrLRQd.s 			page 4


  21:imu.c         ****             sprintf(str, "<sof%d>", (uint8)data);
 152              		.loc 1 21 0
 153 0050 1000     		movs	r0, r2
 154 0052 2900     		movs	r1, r5
 155 0054 FFF7FEFF 		bl	__aeabi_d2uiz
 156              	.LVL11:
 157 0058 C2B2     		uxtb	r2, r0
 158 005a CC49     		ldr	r1, .L61+16
 159 005c 6846     		mov	r0, sp
 160 005e FFF7FEFF 		bl	sprintf
 161              	.LVL12:
  22:imu.c         ****             break;
 162              		.loc 1 22 0
 163 0062 FEE1     		b	.L2
 164              	.LVL13:
 165              	.L8:
  23:imu.c         ****         case SET_OUTPUT_GYRO:
  24:imu.c         ****             sprintf(str, "<sog%d>", (uint8)data);
 166              		.loc 1 24 0
 167 0064 1000     		movs	r0, r2
 168 0066 2900     		movs	r1, r5
 169 0068 FFF7FEFF 		bl	__aeabi_d2uiz
 170              	.LVL14:
 171 006c C2B2     		uxtb	r2, r0
 172 006e C849     		ldr	r1, .L61+20
 173 0070 6846     		mov	r0, sp
 174 0072 FFF7FEFF 		bl	sprintf
 175              	.LVL15:
  25:imu.c         ****             break;
 176              		.loc 1 25 0
 177 0076 F4E1     		b	.L2
 178              	.LVL16:
 179              	.L9:
  26:imu.c         ****         case SET_OUTPUT_ACCELERO:
  27:imu.c         ****             sprintf(str, "<soa%d>", (uint8)data);
 180              		.loc 1 27 0
 181 0078 1000     		movs	r0, r2
 182 007a 2900     		movs	r1, r5
 183 007c FFF7FEFF 		bl	__aeabi_d2uiz
 184              	.LVL17:
 185 0080 C2B2     		uxtb	r2, r0
 186 0082 C449     		ldr	r1, .L61+24
 187 0084 6846     		mov	r0, sp
 188 0086 FFF7FEFF 		bl	sprintf
 189              	.LVL18:
  28:imu.c         ****             break;
 190              		.loc 1 28 0
 191 008a EAE1     		b	.L2
 192              	.LVL19:
 193              	.L10:
  29:imu.c         ****         case SET_OUTPUT_MAGNETO:
  30:imu.c         ****             sprintf(str, "<som%d>", (uint8)data);
 194              		.loc 1 30 0
 195 008c 1000     		movs	r0, r2
 196 008e 2900     		movs	r1, r5
 197 0090 FFF7FEFF 		bl	__aeabi_d2uiz
 198              	.LVL20:
ARM GAS  C:\Users\iron\AppData\Local\Temp\ccVrLRQd.s 			page 5


 199 0094 C2B2     		uxtb	r2, r0
 200 0096 C049     		ldr	r1, .L61+28
 201 0098 6846     		mov	r0, sp
 202 009a FFF7FEFF 		bl	sprintf
 203              	.LVL21:
  31:imu.c         ****             break;
 204              		.loc 1 31 0
 205 009e E0E1     		b	.L2
 206              	.LVL22:
 207              	.L11:
  32:imu.c         ****         case SET_OUTPUT_DISTANCE:
  33:imu.c         ****             sprintf(str, "<sod%d>", (uint8)data);
 208              		.loc 1 33 0
 209 00a0 1000     		movs	r0, r2
 210 00a2 2900     		movs	r1, r5
 211 00a4 FFF7FEFF 		bl	__aeabi_d2uiz
 212              	.LVL23:
 213 00a8 C2B2     		uxtb	r2, r0
 214 00aa BC49     		ldr	r1, .L61+32
 215 00ac 6846     		mov	r0, sp
 216 00ae FFF7FEFF 		bl	sprintf
 217              	.LVL24:
  34:imu.c         ****             break;
 218              		.loc 1 34 0
 219 00b2 D6E1     		b	.L2
 220              	.LVL25:
 221              	.L12:
  35:imu.c         ****         case SET_OUTPUT_TEMPERATURE:
  36:imu.c         ****             sprintf(str, "<sot%d>", (uint8)data);
 222              		.loc 1 36 0
 223 00b4 1000     		movs	r0, r2
 224 00b6 2900     		movs	r1, r5
 225 00b8 FFF7FEFF 		bl	__aeabi_d2uiz
 226              	.LVL26:
 227 00bc C2B2     		uxtb	r2, r0
 228 00be B849     		ldr	r1, .L61+36
 229 00c0 6846     		mov	r0, sp
 230 00c2 FFF7FEFF 		bl	sprintf
 231              	.LVL27:
  37:imu.c         ****             break;
 232              		.loc 1 37 0
 233 00c6 CCE1     		b	.L2
 234              	.LVL28:
 235              	.L13:
  38:imu.c         ****         case SET_OUTPUT_TIMESTAMP:
  39:imu.c         ****             sprintf(str, "<sots%d>", (uint8)data);
 236              		.loc 1 39 0
 237 00c8 1000     		movs	r0, r2
 238 00ca 2900     		movs	r1, r5
 239 00cc FFF7FEFF 		bl	__aeabi_d2uiz
 240              	.LVL29:
 241 00d0 C2B2     		uxtb	r2, r0
 242 00d2 B449     		ldr	r1, .L61+40
 243 00d4 6846     		mov	r0, sp
 244 00d6 FFF7FEFF 		bl	sprintf
 245              	.LVL30:
  40:imu.c         ****             break;
ARM GAS  C:\Users\iron\AppData\Local\Temp\ccVrLRQd.s 			page 6


 246              		.loc 1 40 0
 247 00da C2E1     		b	.L2
 248              	.LVL31:
 249              	.L14:
  41:imu.c         ****         case SET_ENABLE_MAGNETO:
  42:imu.c         ****             sprintf(str, "<sem%d>", (uint8)data);
 250              		.loc 1 42 0
 251 00dc 1000     		movs	r0, r2
 252 00de 2900     		movs	r1, r5
 253 00e0 FFF7FEFF 		bl	__aeabi_d2uiz
 254              	.LVL32:
 255 00e4 C2B2     		uxtb	r2, r0
 256 00e6 B049     		ldr	r1, .L61+44
 257 00e8 6846     		mov	r0, sp
 258 00ea FFF7FEFF 		bl	sprintf
 259              	.LVL33:
  43:imu.c         ****             break;
 260              		.loc 1 43 0
 261 00ee B8E1     		b	.L2
 262              	.LVL34:
 263              	.L15:
  44:imu.c         ****         case SET_SENS_GYRO:
  45:imu.c         ****             sprintf(str, "<ssg%d>", (uint8)data);
 264              		.loc 1 45 0
 265 00f0 1000     		movs	r0, r2
 266 00f2 2900     		movs	r1, r5
 267 00f4 FFF7FEFF 		bl	__aeabi_d2uiz
 268              	.LVL35:
 269 00f8 C2B2     		uxtb	r2, r0
 270 00fa AC49     		ldr	r1, .L61+48
 271 00fc 6846     		mov	r0, sp
 272 00fe FFF7FEFF 		bl	sprintf
 273              	.LVL36:
  46:imu.c         ****             break;
 274              		.loc 1 46 0
 275 0102 AEE1     		b	.L2
 276              	.LVL37:
 277              	.L16:
  47:imu.c         ****         case SET_SENS_ACCELERO:
  48:imu.c         ****             sprintf(str, "<ssa%d>", (uint8)data);
 278              		.loc 1 48 0
 279 0104 1000     		movs	r0, r2
 280 0106 2900     		movs	r1, r5
 281 0108 FFF7FEFF 		bl	__aeabi_d2uiz
 282              	.LVL38:
 283 010c C2B2     		uxtb	r2, r0
 284 010e A849     		ldr	r1, .L61+52
 285 0110 6846     		mov	r0, sp
 286 0112 FFF7FEFF 		bl	sprintf
 287              	.LVL39:
  49:imu.c         ****             break;
 288              		.loc 1 49 0
 289 0116 A4E1     		b	.L2
 290              	.LVL40:
 291              	.L17:
  50:imu.c         ****         case SET_LPF_GYRO:
  51:imu.c         ****             sprintf(str, "<lpfg%d>", (uint8)data);
ARM GAS  C:\Users\iron\AppData\Local\Temp\ccVrLRQd.s 			page 7


 292              		.loc 1 51 0
 293 0118 1000     		movs	r0, r2
 294 011a 2900     		movs	r1, r5
 295 011c FFF7FEFF 		bl	__aeabi_d2uiz
 296              	.LVL41:
 297 0120 C2B2     		uxtb	r2, r0
 298 0122 A449     		ldr	r1, .L61+56
 299 0124 6846     		mov	r0, sp
 300 0126 FFF7FEFF 		bl	sprintf
 301              	.LVL42:
  52:imu.c         ****             break;
 302              		.loc 1 52 0
 303 012a 9AE1     		b	.L2
 304              	.LVL43:
 305              	.L18:
  53:imu.c         ****         case SET_LPF_ACCELERO:
  54:imu.c         ****             sprintf(str, "<lpfa%d>", (uint8)data);
 306              		.loc 1 54 0
 307 012c 1000     		movs	r0, r2
 308 012e 2900     		movs	r1, r5
 309 0130 FFF7FEFF 		bl	__aeabi_d2uiz
 310              	.LVL44:
 311 0134 C2B2     		uxtb	r2, r0
 312 0136 A049     		ldr	r1, .L61+60
 313 0138 6846     		mov	r0, sp
 314 013a FFF7FEFF 		bl	sprintf
 315              	.LVL45:
  55:imu.c         ****             break;
 316              		.loc 1 55 0
 317 013e 90E1     		b	.L2
 318              	.LVL46:
 319              	.L19:
  56:imu.c         ****         case SET_FILTER_FACTOR:
  57:imu.c         ****             sprintf(str, "<sff%d>", (uint8)data);
 320              		.loc 1 57 0
 321 0140 1000     		movs	r0, r2
 322 0142 2900     		movs	r1, r5
 323 0144 FFF7FEFF 		bl	__aeabi_d2uiz
 324              	.LVL47:
 325 0148 C2B2     		uxtb	r2, r0
 326 014a 9C49     		ldr	r1, .L61+64
 327 014c 6846     		mov	r0, sp
 328 014e FFF7FEFF 		bl	sprintf
 329              	.LVL48:
  58:imu.c         ****             break;
 330              		.loc 1 58 0
 331 0152 86E1     		b	.L2
 332              	.LVL49:
 333              	.L20:
  59:imu.c         ****         case SET_FILTER_FACTOR_ACCELERO:
  60:imu.c         ****             sprintf(str, "<sffa%d>", (uint8)data);
 334              		.loc 1 60 0
 335 0154 1000     		movs	r0, r2
 336 0156 2900     		movs	r1, r5
 337 0158 FFF7FEFF 		bl	__aeabi_d2uiz
 338              	.LVL50:
 339 015c C2B2     		uxtb	r2, r0
ARM GAS  C:\Users\iron\AppData\Local\Temp\ccVrLRQd.s 			page 8


 340 015e 9849     		ldr	r1, .L61+68
 341 0160 6846     		mov	r0, sp
 342 0162 FFF7FEFF 		bl	sprintf
 343              	.LVL51:
  61:imu.c         ****             break;
 344              		.loc 1 61 0
 345 0166 7CE1     		b	.L2
 346              	.LVL52:
 347              	.L21:
  62:imu.c         ****         case SET_FILTER_FACTOR_MAGNETO:
  63:imu.c         ****             sprintf(str, "<sffm%d>", (uint8)data);
 348              		.loc 1 63 0
 349 0168 1000     		movs	r0, r2
 350 016a 2900     		movs	r1, r5
 351 016c FFF7FEFF 		bl	__aeabi_d2uiz
 352              	.LVL53:
 353 0170 C2B2     		uxtb	r2, r0
 354 0172 9449     		ldr	r1, .L61+72
 355 0174 6846     		mov	r0, sp
 356 0176 FFF7FEFF 		bl	sprintf
 357              	.LVL54:
  64:imu.c         ****             break;
 358              		.loc 1 64 0
 359 017a 72E1     		b	.L2
 360              	.LVL55:
 361              	.L22:
  65:imu.c         ****         case RAA_ALGORITHM_PARAM_LEVEL:
  66:imu.c         ****             sprintf(str, "<raa_l%.2lf>", data);
 362              		.loc 1 66 0
 363 017c 2B00     		movs	r3, r5
 364 017e 9249     		ldr	r1, .L61+76
 365 0180 6846     		mov	r0, sp
 366 0182 FFF7FEFF 		bl	sprintf
 367              	.LVL56:
  67:imu.c         ****             break;
 368              		.loc 1 67 0
 369 0186 6CE1     		b	.L2
 370              	.LVL57:
 371              	.L23:
  68:imu.c         ****         case RAA_ALGORITHM_PARAM_TIMEOUT:
  69:imu.c         ****             sprintf(str, "<raa_t%ld>", (uint32)data);
 372              		.loc 1 69 0
 373 0188 1000     		movs	r0, r2
 374 018a 2900     		movs	r1, r5
 375 018c FFF7FEFF 		bl	__aeabi_d2uiz
 376              	.LVL58:
 377 0190 0200     		movs	r2, r0
 378 0192 8E49     		ldr	r1, .L61+80
 379 0194 6846     		mov	r0, sp
 380 0196 FFF7FEFF 		bl	sprintf
 381              	.LVL59:
  70:imu.c         ****             break;
 382              		.loc 1 70 0
 383 019a 62E1     		b	.L2
 384              	.LVL60:
 385              	.L24:
  71:imu.c         ****         case RHA_ALGORITHM_PARAM_LEVEL:
ARM GAS  C:\Users\iron\AppData\Local\Temp\ccVrLRQd.s 			page 9


  72:imu.c         ****             sprintf(str, "<rha_l%.2f>", data);
 386              		.loc 1 72 0
 387 019c 2B00     		movs	r3, r5
 388 019e 8C49     		ldr	r1, .L61+84
 389 01a0 6846     		mov	r0, sp
 390 01a2 FFF7FEFF 		bl	sprintf
 391              	.LVL61:
  73:imu.c         ****             break;
 392              		.loc 1 73 0
 393 01a6 5CE1     		b	.L2
 394              	.LVL62:
 395              	.L25:
  74:imu.c         ****         case RHA_ALGORITHM_PARAM_TIMEOUT:
  75:imu.c         ****             sprintf(str, "<rha_t%ld>", (uint32)data);
 396              		.loc 1 75 0
 397 01a8 1000     		movs	r0, r2
 398 01aa 2900     		movs	r1, r5
 399 01ac FFF7FEFF 		bl	__aeabi_d2uiz
 400              	.LVL63:
 401 01b0 0200     		movs	r2, r0
 402 01b2 8849     		ldr	r1, .L61+88
 403 01b4 6846     		mov	r0, sp
 404 01b6 FFF7FEFF 		bl	sprintf
 405              	.LVL64:
  76:imu.c         ****             break;
 406              		.loc 1 76 0
 407 01ba 52E1     		b	.L2
 408              	.LVL65:
 409              	.L26:
  77:imu.c         ****         case AG_CALIBER_PARAM_ENABLE:
  78:imu.c         ****             sprintf(str, "<agc_e%d>", (uint8)data);
 410              		.loc 1 78 0
 411 01bc 1000     		movs	r0, r2
 412 01be 2900     		movs	r1, r5
 413 01c0 FFF7FEFF 		bl	__aeabi_d2uiz
 414              	.LVL66:
 415 01c4 C2B2     		uxtb	r2, r0
 416 01c6 8449     		ldr	r1, .L61+92
 417 01c8 6846     		mov	r0, sp
 418 01ca FFF7FEFF 		bl	sprintf
 419              	.LVL67:
  79:imu.c         ****             break;
 420              		.loc 1 79 0
 421 01ce 48E1     		b	.L2
 422              	.LVL68:
 423              	.L27:
  80:imu.c         ****         case AG_CALIBER_PARAM_THRESHOLD:
  81:imu.c         ****             sprintf(str, "<agc_t%.2f>", (double)data);
 424              		.loc 1 81 0
 425 01d0 2B00     		movs	r3, r5
 426 01d2 8249     		ldr	r1, .L61+96
 427 01d4 6846     		mov	r0, sp
 428 01d6 FFF7FEFF 		bl	sprintf
 429              	.LVL69:
  82:imu.c         ****             break;
 430              		.loc 1 82 0
 431 01da 42E1     		b	.L2
ARM GAS  C:\Users\iron\AppData\Local\Temp\ccVrLRQd.s 			page 10


 432              	.LVL70:
 433              	.L28:
  83:imu.c         ****         case AG_CALIBER_PARAM_DRIFT:
  84:imu.c         ****             sprintf(str, "<agc_d%.2f>", (double)data);
 434              		.loc 1 84 0
 435 01dc 2B00     		movs	r3, r5
 436 01de 8049     		ldr	r1, .L61+100
 437 01e0 6846     		mov	r0, sp
 438 01e2 FFF7FEFF 		bl	sprintf
 439              	.LVL71:
  85:imu.c         ****             break;
 440              		.loc 1 85 0
 441 01e6 3CE1     		b	.L2
 442              	.LVL72:
 443              	.L29:
  86:imu.c         ****         case AV_CANCEL_PARAM_GYRO_ENABLE:
  87:imu.c         ****             sprintf(str, "<avcg_e%d>", (uint8)data);
 444              		.loc 1 87 0
 445 01e8 1000     		movs	r0, r2
 446 01ea 2900     		movs	r1, r5
 447 01ec FFF7FEFF 		bl	__aeabi_d2uiz
 448              	.LVL73:
 449 01f0 C2B2     		uxtb	r2, r0
 450 01f2 7C49     		ldr	r1, .L61+104
 451 01f4 6846     		mov	r0, sp
 452 01f6 FFF7FEFF 		bl	sprintf
 453              	.LVL74:
  88:imu.c         ****             break;
 454              		.loc 1 88 0
 455 01fa 32E1     		b	.L2
 456              	.LVL75:
 457              	.L30:
  89:imu.c         ****         case AV_CANCEL_PARAM_ACCELERO_ENABLE:
  90:imu.c         ****             sprintf(str, "<avca_e%d>", (uint8)data);
 458              		.loc 1 90 0
 459 01fc 1000     		movs	r0, r2
 460 01fe 2900     		movs	r1, r5
 461 0200 FFF7FEFF 		bl	__aeabi_d2uiz
 462              	.LVL76:
 463 0204 C2B2     		uxtb	r2, r0
 464 0206 7849     		ldr	r1, .L61+108
 465 0208 6846     		mov	r0, sp
 466 020a FFF7FEFF 		bl	sprintf
 467              	.LVL77:
  91:imu.c         ****             break;
 468              		.loc 1 91 0
 469 020e 28E1     		b	.L2
 470              	.LVL78:
 471              	.L31:
  92:imu.c         ****         case POS_FILTER_PARAM_SL:
  93:imu.c         ****             sprintf(str, "<posf_sl%.4f>", (double)data);
 472              		.loc 1 93 0
 473 0210 2B00     		movs	r3, r5
 474 0212 7649     		ldr	r1, .L61+112
 475 0214 6846     		mov	r0, sp
 476 0216 FFF7FEFF 		bl	sprintf
 477              	.LVL79:
ARM GAS  C:\Users\iron\AppData\Local\Temp\ccVrLRQd.s 			page 11


  94:imu.c         ****             break;
 478              		.loc 1 94 0
 479 021a 22E1     		b	.L2
 480              	.LVL80:
 481              	.L32:
  95:imu.c         ****         case POS_FILTER_PARAM_ST:
  96:imu.c         ****             sprintf(str, "<posf_st%d>", (uint16)data);
 482              		.loc 1 96 0
 483 021c 1000     		movs	r0, r2
 484 021e 2900     		movs	r1, r5
 485 0220 FFF7FEFF 		bl	__aeabi_d2uiz
 486              	.LVL81:
 487 0224 82B2     		uxth	r2, r0
 488 0226 7249     		ldr	r1, .L61+116
 489 0228 6846     		mov	r0, sp
 490 022a FFF7FEFF 		bl	sprintf
 491              	.LVL82:
  97:imu.c         ****             break;
 492              		.loc 1 97 0
 493 022e 18E1     		b	.L2
 494              	.LVL83:
 495              	.L33:
  98:imu.c         ****         case POS_FILTER_PARAM_SR:
  99:imu.c         ****             sprintf(str, "<posf_sr%.4f>", (double)data);
 496              		.loc 1 99 0
 497 0230 2B00     		movs	r3, r5
 498 0232 7049     		ldr	r1, .L61+120
 499 0234 6846     		mov	r0, sp
 500 0236 FFF7FEFF 		bl	sprintf
 501              	.LVL84:
 100:imu.c         ****             break;
 502              		.loc 1 100 0
 503 023a 12E1     		b	.L2
 504              	.LVL85:
 505              	.L34:
 101:imu.c         ****         case POS_FILTER_PARAM_AR:
 102:imu.c         ****             sprintf(str, "<posf_ar%.4f>", (double)data);
 506              		.loc 1 102 0
 507 023c 2B00     		movs	r3, r5
 508 023e 6E49     		ldr	r1, .L61+124
 509 0240 6846     		mov	r0, sp
 510 0242 FFF7FEFF 		bl	sprintf
 511              	.LVL86:
 103:imu.c         ****             break;
 512              		.loc 1 103 0
 513 0246 0CE1     		b	.L2
 514              	.LVL87:
 515              	.L35:
 104:imu.c         ****         case POS_ZERO:
 105:imu.c         ****             sprintf(str, "<posz>");
 516              		.loc 1 105 0
 517 0248 6C4B     		ldr	r3, .L61+128
 518 024a 1A68     		ldr	r2, [r3]
 519              	.LVL88:
 520 024c 0092     		str	r2, [sp]
 521 024e 9A88     		ldrh	r2, [r3, #4]
 522 0250 6946     		mov	r1, sp
ARM GAS  C:\Users\iron\AppData\Local\Temp\ccVrLRQd.s 			page 12


 523 0252 8A80     		strh	r2, [r1, #4]
 524 0254 9B79     		ldrb	r3, [r3, #6]
 525 0256 8B71     		strb	r3, [r1, #6]
 106:imu.c         ****             break;
 526              		.loc 1 106 0
 527 0258 03E1     		b	.L2
 528              	.LVL89:
 529              	.L36:
 107:imu.c         ****         // CALIBRATIONÏùÄ Î¨ºÎ¶¨Ï†ÅÏúºÎ°ú Ï°∞Ï†àÌïòÍ≥†, Ï°∞Ï†àÏù¥ ÎÅùÎÇòÎ©¥ '>'Î•º ÏûÖÎ†•Ìï¥Ï£ºÏñ¥Ï
 108:imu.c         ****         // Ïù¥Í±¥ Ï∂îÌõÑÏóê Íµ¨ÌòÑ ÏòàÏ†ï
 109:imu.c         ****         case CALIBRATION_GYRO:
 110:imu.c         ****             sprintf(str, "<cg>");
 530              		.loc 1 110 0
 531 025a 694B     		ldr	r3, .L61+132
 532 025c 1A68     		ldr	r2, [r3]
 533              	.LVL90:
 534 025e 0092     		str	r2, [sp]
 535 0260 1B79     		ldrb	r3, [r3, #4]
 536 0262 6A46     		mov	r2, sp
 537 0264 1371     		strb	r3, [r2, #4]
 111:imu.c         ****             break;
 538              		.loc 1 111 0
 539 0266 FCE0     		b	.L2
 540              	.LVL91:
 541              	.L37:
 112:imu.c         ****         case CALIBRATION_ACCELERO_FREE:
 113:imu.c         ****             sprintf(str, "<caf>");
 542              		.loc 1 113 0
 543 0268 664B     		ldr	r3, .L61+136
 544 026a 1A68     		ldr	r2, [r3]
 545              	.LVL92:
 546 026c 0092     		str	r2, [sp]
 547 026e 9B88     		ldrh	r3, [r3, #4]
 548 0270 6A46     		mov	r2, sp
 549 0272 9380     		strh	r3, [r2, #4]
 114:imu.c         ****             break;
 550              		.loc 1 114 0
 551 0274 F5E0     		b	.L2
 552              	.LVL93:
 553              	.L38:
 115:imu.c         ****         case CALIBRATION_ACCELERO_SIMPLE:
 116:imu.c         ****             sprintf(str, "<cas>");
 554              		.loc 1 116 0
 555 0276 644B     		ldr	r3, .L61+140
 556 0278 1A68     		ldr	r2, [r3]
 557              	.LVL94:
 558 027a 0092     		str	r2, [sp]
 559 027c 9B88     		ldrh	r3, [r3, #4]
 560 027e 6A46     		mov	r2, sp
 561 0280 9380     		strh	r3, [r2, #4]
 117:imu.c         ****             break;
 562              		.loc 1 117 0
 563 0282 EEE0     		b	.L2
 564              	.LVL95:
 565              	.L39:
 118:imu.c         ****         case CALIBRATION_MAGNETO_FREE:
 119:imu.c         ****             sprintf(str, "<cmf>");
ARM GAS  C:\Users\iron\AppData\Local\Temp\ccVrLRQd.s 			page 13


 566              		.loc 1 119 0
 567 0284 614B     		ldr	r3, .L61+144
 568 0286 1A68     		ldr	r2, [r3]
 569              	.LVL96:
 570 0288 0092     		str	r2, [sp]
 571 028a 9B88     		ldrh	r3, [r3, #4]
 572 028c 6A46     		mov	r2, sp
 573 028e 9380     		strh	r3, [r2, #4]
 120:imu.c         ****             break;
 574              		.loc 1 120 0
 575 0290 E7E0     		b	.L2
 576              	.LVL97:
 577              	.L40:
 121:imu.c         ****         case CALIBRATION_MAGNETO_XY:
 122:imu.c         ****             sprintf(str, "<cnxy>");
 578              		.loc 1 122 0
 579 0292 5F4B     		ldr	r3, .L61+148
 580 0294 1A68     		ldr	r2, [r3]
 581              	.LVL98:
 582 0296 0092     		str	r2, [sp]
 583 0298 9A88     		ldrh	r2, [r3, #4]
 584 029a 6946     		mov	r1, sp
 585 029c 8A80     		strh	r2, [r1, #4]
 586 029e 9B79     		ldrb	r3, [r3, #6]
 587 02a0 8B71     		strb	r3, [r1, #6]
 123:imu.c         ****             break;
 588              		.loc 1 123 0
 589 02a2 DEE0     		b	.L2
 590              	.LVL99:
 591              	.L41:
 124:imu.c         ****         case CALIBRATION_MAGNETO_PXY:
 125:imu.c         ****             sprintf(str, "<+cnxy>");
 592              		.loc 1 125 0
 593 02a4 6A46     		mov	r2, sp
 594              	.LVL100:
 595 02a6 5B4B     		ldr	r3, .L61+152
 596 02a8 03CB     		ldmia	r3!, {r0, r1}
 597 02aa 03C2     		stmia	r2!, {r0, r1}
 126:imu.c         ****             break;
 598              		.loc 1 126 0
 599 02ac D9E0     		b	.L2
 600              	.LVL101:
 601              	.L42:
 127:imu.c         ****         case CALIBRATION_MAGNETO_Z:
 128:imu.c         ****             sprintf(str, "<cnz>");
 602              		.loc 1 128 0
 603 02ae 5A4B     		ldr	r3, .L61+156
 604 02b0 1A68     		ldr	r2, [r3]
 605              	.LVL102:
 606 02b2 0092     		str	r2, [sp]
 607 02b4 9B88     		ldrh	r3, [r3, #4]
 608 02b6 6A46     		mov	r2, sp
 609 02b8 9380     		strh	r3, [r2, #4]
 129:imu.c         ****             break;
 610              		.loc 1 129 0
 611 02ba D2E0     		b	.L2
 612              	.LVL103:
ARM GAS  C:\Users\iron\AppData\Local\Temp\ccVrLRQd.s 			page 14


 613              	.L43:
 130:imu.c         ****         case CALIBRATION_MAGNETO_PZ:
 131:imu.c         ****             sprintf(str, "<+cnz>");
 614              		.loc 1 131 0
 615 02bc 574B     		ldr	r3, .L61+160
 616 02be 1A68     		ldr	r2, [r3]
 617              	.LVL104:
 618 02c0 0092     		str	r2, [sp]
 619 02c2 9A88     		ldrh	r2, [r3, #4]
 620 02c4 6946     		mov	r1, sp
 621 02c6 8A80     		strh	r2, [r1, #4]
 622 02c8 9B79     		ldrb	r3, [r3, #6]
 623 02ca 8B71     		strb	r3, [r1, #6]
 132:imu.c         ****             break;
 624              		.loc 1 132 0
 625 02cc C9E0     		b	.L2
 626              	.LVL105:
 627              	.L44:
 133:imu.c         ****         case SET_MOTION_OFFSET:
 134:imu.c         ****             sprintf(str, "<cmo>");
 628              		.loc 1 134 0
 629 02ce 544B     		ldr	r3, .L61+164
 630 02d0 1A68     		ldr	r2, [r3]
 631              	.LVL106:
 632 02d2 0092     		str	r2, [sp]
 633 02d4 9B88     		ldrh	r3, [r3, #4]
 634 02d6 6A46     		mov	r2, sp
 635 02d8 9380     		strh	r3, [r2, #4]
 135:imu.c         ****             break;
 636              		.loc 1 135 0
 637 02da C2E0     		b	.L2
 638              	.LVL107:
 639              	.L45:
 136:imu.c         ****         case SET_MOTION_OFFSET_X:
 137:imu.c         ****             sprintf(str, "<cmox>");
 640              		.loc 1 137 0
 641 02dc 514B     		ldr	r3, .L61+168
 642 02de 1A68     		ldr	r2, [r3]
 643              	.LVL108:
 644 02e0 0092     		str	r2, [sp]
 645 02e2 9A88     		ldrh	r2, [r3, #4]
 646 02e4 6946     		mov	r1, sp
 647 02e6 8A80     		strh	r2, [r1, #4]
 648 02e8 9B79     		ldrb	r3, [r3, #6]
 649 02ea 8B71     		strb	r3, [r1, #6]
 138:imu.c         ****             break;
 650              		.loc 1 138 0
 651 02ec B9E0     		b	.L2
 652              	.LVL109:
 653              	.L46:
 139:imu.c         ****         case SET_MOTION_OFFSET_Y:
 140:imu.c         ****             sprintf(str, "<cmoy>");
 654              		.loc 1 140 0
 655 02ee 4E4B     		ldr	r3, .L61+172
 656 02f0 1A68     		ldr	r2, [r3]
 657              	.LVL110:
 658 02f2 0092     		str	r2, [sp]
ARM GAS  C:\Users\iron\AppData\Local\Temp\ccVrLRQd.s 			page 15


 659 02f4 9A88     		ldrh	r2, [r3, #4]
 660 02f6 6946     		mov	r1, sp
 661 02f8 8A80     		strh	r2, [r1, #4]
 662 02fa 9B79     		ldrb	r3, [r3, #6]
 663 02fc 8B71     		strb	r3, [r1, #6]
 141:imu.c         ****             break;
 664              		.loc 1 141 0
 665 02fe B0E0     		b	.L2
 666              	.LVL111:
 667              	.L47:
 142:imu.c         ****         case SET_MOTION_OFFSET_Z:
 143:imu.c         ****             sprintf(str, "<cmoz>");
 668              		.loc 1 143 0
 669 0300 4A4B     		ldr	r3, .L61+176
 670 0302 1A68     		ldr	r2, [r3]
 671              	.LVL112:
 672 0304 0092     		str	r2, [sp]
 673 0306 9A88     		ldrh	r2, [r3, #4]
 674 0308 6946     		mov	r1, sp
 675 030a 8A80     		strh	r2, [r1, #4]
 676 030c 9B79     		ldrb	r3, [r3, #6]
 677 030e 8B71     		strb	r3, [r1, #6]
 144:imu.c         ****             break;
 678              		.loc 1 144 0
 679 0310 A7E0     		b	.L2
 680              	.LVL113:
 681              	.L48:
 145:imu.c         ****         case SET_MOTION_OFFSET_XY:
 146:imu.c         ****             sprintf(str, "<cmoxy>");
 682              		.loc 1 146 0
 683 0312 6A46     		mov	r2, sp
 684              	.LVL114:
 685 0314 464B     		ldr	r3, .L61+180
 686 0316 03CB     		ldmia	r3!, {r0, r1}
 687 0318 03C2     		stmia	r2!, {r0, r1}
 147:imu.c         ****             break;
 688              		.loc 1 147 0
 689 031a A2E0     		b	.L2
 690              	.LVL115:
 691              	.L49:
 148:imu.c         ****         case CLEAR_MOTION_OFFSET:
 149:imu.c         ****             sprintf(str, "<cmoc>");
 692              		.loc 1 149 0
 693 031c 454B     		ldr	r3, .L61+184
 694 031e 1A68     		ldr	r2, [r3]
 695              	.LVL116:
 696 0320 0092     		str	r2, [sp]
 697 0322 9A88     		ldrh	r2, [r3, #4]
 698 0324 6946     		mov	r1, sp
 699 0326 8A80     		strh	r2, [r1, #4]
 700 0328 9B79     		ldrb	r3, [r3, #6]
 701 032a 8B71     		strb	r3, [r1, #6]
 150:imu.c         ****             break;
 702              		.loc 1 150 0
 703 032c 99E0     		b	.L2
 704              	.LVL117:
 705              	.L50:
ARM GAS  C:\Users\iron\AppData\Local\Temp\ccVrLRQd.s 			page 16


 151:imu.c         ****         // CONFIGURATION is also wait until input character '>'.
 152:imu.c         ****         case CONFIGURATION:
 153:imu.c         ****             sprintf(str, "<cfg>");
 706              		.loc 1 153 0
 707 032e 424B     		ldr	r3, .L61+188
 708 0330 1A68     		ldr	r2, [r3]
 709              	.LVL118:
 710 0332 0092     		str	r2, [sp]
 711 0334 9B88     		ldrh	r3, [r3, #4]
 712 0336 6A46     		mov	r2, sp
 713 0338 9380     		strh	r3, [r2, #4]
 154:imu.c         ****             break;
 714              		.loc 1 154 0
 715 033a 92E0     		b	.L2
 716              	.LVL119:
 717              	.L51:
 155:imu.c         ****         case POWER_ON_START:
 156:imu.c         ****             sprintf(str, "<pons%d>", (uint8)data);
 718              		.loc 1 156 0
 719 033c 1000     		movs	r0, r2
 720 033e 2900     		movs	r1, r5
 721 0340 FFF7FEFF 		bl	__aeabi_d2uiz
 722              	.LVL120:
 723 0344 C2B2     		uxtb	r2, r0
 724 0346 3D49     		ldr	r1, .L61+192
 725 0348 6846     		mov	r0, sp
 726 034a FFF7FEFF 		bl	sprintf
 727              	.LVL121:
 157:imu.c         ****             break;
 728              		.loc 1 157 0
 729 034e 88E0     		b	.L2
 730              	.LVL122:
 731              	.L52:
 158:imu.c         ****         case START:
 159:imu.c         ****             sprintf(str, "<start>");
 732              		.loc 1 159 0
 733 0350 6A46     		mov	r2, sp
 734              	.LVL123:
 735 0352 3B4B     		ldr	r3, .L61+196
 736 0354 03CB     		ldmia	r3!, {r0, r1}
 737 0356 03C2     		stmia	r2!, {r0, r1}
 160:imu.c         ****             break;
 738              		.loc 1 160 0
 739 0358 83E0     		b	.L2
 740              	.LVL124:
 741              	.L53:
 161:imu.c         ****         case STOP:
 162:imu.c         ****             sprintf(str, "<stop>");
 742              		.loc 1 162 0
 743 035a 3A4B     		ldr	r3, .L61+200
 744 035c 1A68     		ldr	r2, [r3]
 745              	.LVL125:
 746 035e 0092     		str	r2, [sp]
 747 0360 9A88     		ldrh	r2, [r3, #4]
 748 0362 6946     		mov	r1, sp
 749 0364 8A80     		strh	r2, [r1, #4]
 750 0366 9B79     		ldrb	r3, [r3, #6]
ARM GAS  C:\Users\iron\AppData\Local\Temp\ccVrLRQd.s 			page 17


 751 0368 8B71     		strb	r3, [r1, #6]
 163:imu.c         ****             break;
 752              		.loc 1 163 0
 753 036a 7AE0     		b	.L2
 754              	.LVL126:
 755              	.L54:
 164:imu.c         ****         case LOAD_FACTORORY_SETTINGS:
 165:imu.c         ****             sprintf(str, "<lf>");
 756              		.loc 1 165 0
 757 036c 364B     		ldr	r3, .L61+204
 758 036e 1A68     		ldr	r2, [r3]
 759              	.LVL127:
 760 0370 0092     		str	r2, [sp]
 761 0372 1B79     		ldrb	r3, [r3, #4]
 762 0374 6A46     		mov	r2, sp
 763 0376 1371     		strb	r3, [r2, #4]
 166:imu.c         ****             break;
 764              		.loc 1 166 0
 765 0378 73E0     		b	.L2
 766              	.L62:
 767 037a C046     		.align	2
 768              	.L61:
 769 037c 00000000 		.word	.L4
 770 0380 00000000 		.word	.LC1
 771 0384 08000000 		.word	.LC3
 772 0388 10000000 		.word	.LC5
 773 038c 18000000 		.word	.LC7
 774 0390 20000000 		.word	.LC9
 775 0394 28000000 		.word	.LC11
 776 0398 30000000 		.word	.LC13
 777 039c 38000000 		.word	.LC15
 778 03a0 40000000 		.word	.LC17
 779 03a4 48000000 		.word	.LC19
 780 03a8 54000000 		.word	.LC21
 781 03ac 5C000000 		.word	.LC23
 782 03b0 64000000 		.word	.LC25
 783 03b4 6C000000 		.word	.LC27
 784 03b8 78000000 		.word	.LC29
 785 03bc 84000000 		.word	.LC31
 786 03c0 8C000000 		.word	.LC33
 787 03c4 98000000 		.word	.LC35
 788 03c8 A4000000 		.word	.LC37
 789 03cc B4000000 		.word	.LC39
 790 03d0 C0000000 		.word	.LC41
 791 03d4 CC000000 		.word	.LC43
 792 03d8 D8000000 		.word	.LC45
 793 03dc E4000000 		.word	.LC47
 794 03e0 F0000000 		.word	.LC49
 795 03e4 FC000000 		.word	.LC51
 796 03e8 08010000 		.word	.LC53
 797 03ec 14010000 		.word	.LC55
 798 03f0 24010000 		.word	.LC57
 799 03f4 30010000 		.word	.LC59
 800 03f8 40010000 		.word	.LC61
 801 03fc 50010000 		.word	.LC63
 802 0400 58010000 		.word	.LC65
 803 0404 60010000 		.word	.LC67
ARM GAS  C:\Users\iron\AppData\Local\Temp\ccVrLRQd.s 			page 18


 804 0408 68010000 		.word	.LC69
 805 040c 70010000 		.word	.LC71
 806 0410 78010000 		.word	.LC73
 807 0414 80010000 		.word	.LC75
 808 0418 88010000 		.word	.LC77
 809 041c 90010000 		.word	.LC79
 810 0420 98010000 		.word	.LC81
 811 0424 A0010000 		.word	.LC83
 812 0428 A8010000 		.word	.LC85
 813 042c B0010000 		.word	.LC87
 814 0430 B8010000 		.word	.LC89
 815 0434 C0010000 		.word	.LC91
 816 0438 C8010000 		.word	.LC93
 817 043c D0010000 		.word	.LC95
 818 0440 DC010000 		.word	.LC97
 819 0444 E4010000 		.word	.LC99
 820 0448 EC010000 		.word	.LC101
 821              	.LVL128:
 822              	.L55:
 167:imu.c         ****         case RESET:
 168:imu.c         ****             sprintf(str, "<reset>");
 823              		.loc 1 168 0
 824 044c 6A46     		mov	r2, sp
 825              	.LVL129:
 826 044e 134B     		ldr	r3, .L63
 827 0450 03CB     		ldmia	r3!, {r0, r1}
 828 0452 03C2     		stmia	r2!, {r0, r1}
 169:imu.c         ****             break;
 829              		.loc 1 169 0
 830 0454 05E0     		b	.L2
 831              	.LVL130:
 832              	.L56:
 170:imu.c         ****         case VERSION_CHECK:
 171:imu.c         ****             sprintf(str, "<ver>");
 833              		.loc 1 171 0
 834 0456 124B     		ldr	r3, .L63+4
 835 0458 1A68     		ldr	r2, [r3]
 836              	.LVL131:
 837 045a 0092     		str	r2, [sp]
 838 045c 9B88     		ldrh	r3, [r3, #4]
 839 045e 6A46     		mov	r2, sp
 840 0460 9380     		strh	r3, [r2, #4]
 841              	.L2:
 172:imu.c         ****             break;
 173:imu.c         ****     }
 174:imu.c         ****     
 175:imu.c         ****     //printf("%s\r\n", str);
 176:imu.c         ****     UART_IMU_UartPutString(str);
 842              		.loc 1 176 0
 843 0462 6846     		mov	r0, sp
 844 0464 FFF7FEFF 		bl	UART_IMU_UartPutString
 845              	.LVL132:
 846              	.L57:
 177:imu.c         ****     
 178:imu.c         ****     uint8 ch;
 179:imu.c         ****     
 180:imu.c         ****     while ((ch = UART_IMU_UartGetChar()) != '<');
ARM GAS  C:\Users\iron\AppData\Local\Temp\ccVrLRQd.s 			page 19


 847              		.loc 1 180 0 discriminator 1
 848 0468 FFF7FEFF 		bl	UART_IMU_UartGetChar
 849              	.LVL133:
 850 046c C0B2     		uxtb	r0, r0
 851              	.LVL134:
 852 046e 3C28     		cmp	r0, #60
 853 0470 FAD1     		bne	.L57
 854              	.L58:
 181:imu.c         ****     while ((ch = UART_IMU_UartGetChar()) != 'o');
 855              		.loc 1 181 0 discriminator 1
 856 0472 FFF7FEFF 		bl	UART_IMU_UartGetChar
 857              	.LVL135:
 858 0476 C0B2     		uxtb	r0, r0
 859              	.LVL136:
 860 0478 6F28     		cmp	r0, #111
 861 047a FAD1     		bne	.L58
 862              	.L59:
 182:imu.c         ****     while ((ch = UART_IMU_UartGetChar()) != 'k');
 863              		.loc 1 182 0 discriminator 1
 864 047c FFF7FEFF 		bl	UART_IMU_UartGetChar
 865              	.LVL137:
 866 0480 C0B2     		uxtb	r0, r0
 867              	.LVL138:
 868 0482 6B28     		cmp	r0, #107
 869 0484 FAD1     		bne	.L59
 870              	.L60:
 183:imu.c         ****     while ((ch = UART_IMU_UartGetChar()) != '>');
 871              		.loc 1 183 0 discriminator 1
 872 0486 FFF7FEFF 		bl	UART_IMU_UartGetChar
 873              	.LVL139:
 874 048a C0B2     		uxtb	r0, r0
 875              	.LVL140:
 876 048c 3E28     		cmp	r0, #62
 877 048e FAD1     		bne	.L60
 184:imu.c         ****     
 185:imu.c         ****     printf("OK\r\n");
 878              		.loc 1 185 0
 879 0490 0448     		ldr	r0, .L63+8
 880              	.LVL141:
 881 0492 FFF7FEFF 		bl	puts
 882              	.LVL142:
 186:imu.c         **** }
 883              		.loc 1 186 0
 884 0496 11B0     		add	sp, sp, #68
 885              		@ sp needed
 886 0498 30BD     		pop	{r4, r5, pc}
 887              	.L64:
 888 049a C046     		.align	2
 889              	.L63:
 890 049c F4010000 		.word	.LC103
 891 04a0 FC010000 		.word	.LC105
 892 04a4 04020000 		.word	.LC107
 893              		.cfi_endproc
 894              	.LFE36:
 895              		.size	EBIMU_send_command, .-EBIMU_send_command
 896              		.section	.text.EBIMU_poll,"ax",%progbits
 897              		.align	2
ARM GAS  C:\Users\iron\AppData\Local\Temp\ccVrLRQd.s 			page 20


 898              		.global	EBIMU_poll
 899              		.code	16
 900              		.thumb_func
 901              		.type	EBIMU_poll, %function
 902              	EBIMU_poll:
 903              	.LFB37:
 187:imu.c         **** 
 188:imu.c         **** void EBIMU_poll(void)
 189:imu.c         **** {
 904              		.loc 1 189 0
 905              		.cfi_startproc
 906              		@ args = 0, pretend = 0, frame = 0
 907              		@ frame_needed = 0, uses_anonymous_args = 0
 908 0000 10B5     		push	{r4, lr}
 909              		.cfi_def_cfa_offset 8
 910              		.cfi_offset 4, -8
 911              		.cfi_offset 14, -4
 190:imu.c         ****     UART_IMU_UartPutChar('*');
 912              		.loc 1 190 0
 913 0002 2A20     		movs	r0, #42
 914 0004 FFF7FEFF 		bl	UART_IMU_SpiUartWriteTxData
 915              	.LVL143:
 191:imu.c         ****     CyDelay(10);
 916              		.loc 1 191 0
 917 0008 0A20     		movs	r0, #10
 918 000a FFF7FEFF 		bl	CyDelay
 919              	.LVL144:
 192:imu.c         **** }
 920              		.loc 1 192 0
 921              		@ sp needed
 922 000e 10BD     		pop	{r4, pc}
 923              		.cfi_endproc
 924              	.LFE37:
 925              		.size	EBIMU_poll, .-EBIMU_poll
 926              		.section	.text.EBIMU_recv_data,"ax",%progbits
 927              		.align	2
 928              		.global	EBIMU_recv_data
 929              		.code	16
 930              		.thumb_func
 931              		.type	EBIMU_recv_data, %function
 932              	EBIMU_recv_data:
 933              	.LFB38:
 193:imu.c         **** 
 194:imu.c         **** IMU EBIMU_recv_data(void)
 195:imu.c         **** {
 934              		.loc 1 195 0
 935              		.cfi_startproc
 936              		@ args = 0, pretend = 0, frame = 0
 937              		@ frame_needed = 0, uses_anonymous_args = 0
 938              	.LVL145:
 939 0000 F0B5     		push	{r4, r5, r6, r7, lr}
 940              		.cfi_def_cfa_offset 20
 941              		.cfi_offset 4, -20
 942              		.cfi_offset 5, -16
 943              		.cfi_offset 6, -12
 944              		.cfi_offset 7, -8
 945              		.cfi_offset 14, -4
ARM GAS  C:\Users\iron\AppData\Local\Temp\ccVrLRQd.s 			page 21


 946 0002 4746     		mov	r7, r8
 947 0004 80B4     		push	{r7}
 948              		.cfi_def_cfa_offset 24
 949              		.cfi_offset 8, -24
 950 0006 8046     		mov	r8, r0
 951              	.LVL146:
 196:imu.c         ****     uint16 hex;
 197:imu.c         ****     uint16 chksum = 0;
 198:imu.c         ****     int cnt = 0;   
 199:imu.c         ****     IMU data;
 200:imu.c         ****     
 201:imu.c         ****     EBIMU_poll();
 952              		.loc 1 201 0
 953 0008 FFF7FEFF 		bl	EBIMU_poll
 954              	.LVL147:
 202:imu.c         ****     
 203:imu.c         ****     hex = (UART_IMU_UartGetChar() << 8) | UART_IMU_UartGetChar();
 955              		.loc 1 203 0
 956 000c FFF7FEFF 		bl	UART_IMU_UartGetChar
 957              	.LVL148:
 958 0010 0400     		movs	r4, r0
 959 0012 FFF7FEFF 		bl	UART_IMU_UartGetChar
 960              	.LVL149:
 961 0016 2402     		lsls	r4, r4, #8
 962 0018 2043     		orrs	r0, r4
 963 001a 80B2     		uxth	r0, r0
 964              	.LVL150:
 204:imu.c         **** 
 205:imu.c         ****     if (hex == 0x5555)
 965              		.loc 1 205 0
 966 001c 274B     		ldr	r3, .L80
 967 001e 9842     		cmp	r0, r3
 968 0020 47D1     		bne	.L66
 969 0022 42E0     		b	.L78
 970              	.LVL151:
 971              	.L75:
 972              	.LBB2:
 206:imu.c         ****     {
 207:imu.c         ****         chksum = 0;
 208:imu.c         ****         cnt = 0;
 209:imu.c         **** 
 210:imu.c         ****         while (chksum != hex)
 211:imu.c         ****         {
 212:imu.c         ****             for (uint8 i = 0; i < 3; i++)
 213:imu.c         ****             {
 214:imu.c         ****                 chksum += ((hex & 0xFF00) >> 8) + (hex & 0x00FF);
 973              		.loc 1 214 0
 974 0024 020A     		lsrs	r2, r0, #8
 975 0026 FF23     		movs	r3, #255
 976 0028 1840     		ands	r0, r3
 977              	.LVL152:
 978 002a 1018     		adds	r0, r2, r0
 979 002c 3818     		adds	r0, r7, r0
 980 002e 87B2     		uxth	r7, r0
 981              	.LVL153:
 215:imu.c         ****                 hex = (UART_IMU_UartGetChar() << 8) | UART_IMU_UartGetChar();
 982              		.loc 1 215 0
ARM GAS  C:\Users\iron\AppData\Local\Temp\ccVrLRQd.s 			page 22


 983 0030 FFF7FEFF 		bl	UART_IMU_UartGetChar
 984              	.LVL154:
 985 0034 0600     		movs	r6, r0
 986 0036 FFF7FEFF 		bl	UART_IMU_UartGetChar
 987              	.LVL155:
 988 003a 3302     		lsls	r3, r6, #8
 989 003c 1843     		orrs	r0, r3
 990 003e 80B2     		uxth	r0, r0
 991              	.LVL156:
 216:imu.c         ****                 
 217:imu.c         ****                 switch (cnt)
 992              		.loc 1 217 0
 993 0040 012D     		cmp	r5, #1
 994 0042 0CD0     		beq	.L70
 995 0044 02DC     		bgt	.L71
 996 0046 002D     		cmp	r5, #0
 997 0048 05D0     		beq	.L72
 998 004a 16E0     		b	.L69
 999              	.L71:
 1000 004c 022D     		cmp	r5, #2
 1001 004e 0AD0     		beq	.L73
 1002 0050 032D     		cmp	r5, #3
 1003 0052 0DD0     		beq	.L74
 1004 0054 11E0     		b	.L69
 1005              	.L72:
 218:imu.c         ****                 {
 219:imu.c         ****                     case 0:
 220:imu.c         ****                         data.sof[i] = hex;
 1006              		.loc 1 220 0
 1007 0056 6300     		lsls	r3, r4, #1
 1008 0058 4246     		mov	r2, r8
 1009 005a 9852     		strh	r0, [r3, r2]
 221:imu.c         ****                         break;
 1010              		.loc 1 221 0
 1011 005c 0DE0     		b	.L69
 1012              	.L70:
 222:imu.c         ****                     case 1:
 223:imu.c         ****                         data.gyr[i] = hex;
 1013              		.loc 1 223 0
 1014 005e 6300     		lsls	r3, r4, #1
 1015 0060 4344     		add	r3, r3, r8
 1016 0062 D880     		strh	r0, [r3, #6]
 224:imu.c         ****                         break;
 1017              		.loc 1 224 0
 1018 0064 09E0     		b	.L69
 1019              	.L73:
 225:imu.c         ****                     case 2:
 226:imu.c         ****                         data.acc[i] = hex;
 1020              		.loc 1 226 0
 1021 0066 231D     		adds	r3, r4, #4
 1022 0068 5B00     		lsls	r3, r3, #1
 1023 006a 4344     		add	r3, r3, r8
 1024 006c 9880     		strh	r0, [r3, #4]
 227:imu.c         ****                         break;
 1025              		.loc 1 227 0
 1026 006e 04E0     		b	.L69
 1027              	.L74:
ARM GAS  C:\Users\iron\AppData\Local\Temp\ccVrLRQd.s 			page 23


 228:imu.c         ****                     case 3:
 229:imu.c         ****                         data.mag[i] = hex;
 1028              		.loc 1 229 0
 1029 0070 2300     		movs	r3, r4
 1030 0072 0833     		adds	r3, r3, #8
 1031 0074 5B00     		lsls	r3, r3, #1
 1032 0076 4344     		add	r3, r3, r8
 1033 0078 5880     		strh	r0, [r3, #2]
 1034              	.L69:
 212:imu.c         ****             {
 1035              		.loc 1 212 0 discriminator 2
 1036 007a 0134     		adds	r4, r4, #1
 1037              	.LVL157:
 1038 007c E4B2     		uxtb	r4, r4
 1039              	.LVL158:
 1040 007e 00E0     		b	.L77
 1041              	.LVL159:
 1042              	.L79:
 1043              	.LBE2:
 1044 0080 0024     		movs	r4, #0
 1045              	.L77:
 1046              	.LVL160:
 1047              	.LBB3:
 212:imu.c         ****             {
 1048              		.loc 1 212 0 is_stmt 0 discriminator 1
 1049 0082 022C     		cmp	r4, #2
 1050 0084 CED9     		bls	.L75
 1051              	.LBE3:
 230:imu.c         ****                         break;
 231:imu.c         ****                 }
 232:imu.c         ****             }
 233:imu.c         ****             
 234:imu.c         ****             cnt += 1;
 1052              		.loc 1 234 0 is_stmt 1
 1053 0086 0135     		adds	r5, r5, #1
 1054              	.LVL161:
 235:imu.c         ****             
 236:imu.c         ****             if (cnt == 3)
 1055              		.loc 1 236 0
 1056 0088 032D     		cmp	r5, #3
 1057 008a 10D1     		bne	.L67
 237:imu.c         ****             {
 238:imu.c         ****                 chksum += ((hex & 0xFF00) >> 8) + (hex & 0x00FF);
 1058              		.loc 1 238 0
 1059 008c 020A     		lsrs	r2, r0, #8
 1060 008e FF23     		movs	r3, #255
 1061 0090 1840     		ands	r0, r3
 1062              	.LVL162:
 1063 0092 1018     		adds	r0, r2, r0
 1064 0094 3818     		adds	r0, r7, r0
 1065 0096 87B2     		uxth	r7, r0
 1066              	.LVL163:
 239:imu.c         ****                 hex = (UART_IMU_UartGetChar() << 8) | UART_IMU_UartGetChar();
 1067              		.loc 1 239 0
 1068 0098 FFF7FEFF 		bl	UART_IMU_UartGetChar
 1069              	.LVL164:
 1070 009c 0400     		movs	r4, r0
ARM GAS  C:\Users\iron\AppData\Local\Temp\ccVrLRQd.s 			page 24


 1071              	.LVL165:
 1072 009e FFF7FEFF 		bl	UART_IMU_UartGetChar
 1073              	.LVL166:
 1074 00a2 2402     		lsls	r4, r4, #8
 1075 00a4 2043     		orrs	r0, r4
 1076 00a6 80B2     		uxth	r0, r0
 1077              	.LVL167:
 1078 00a8 01E0     		b	.L67
 1079              	.LVL168:
 1080              	.L78:
 1081 00aa 0025     		movs	r5, #0
 1082 00ac 0027     		movs	r7, #0
 1083              	.LVL169:
 1084              	.L67:
 210:imu.c         ****         {
 1085              		.loc 1 210 0
 1086 00ae B842     		cmp	r0, r7
 1087 00b0 E6D1     		bne	.L79
 1088              	.LVL170:
 1089              	.L66:
 240:imu.c         ****             }
 241:imu.c         ****         }
 242:imu.c         ****     }
 243:imu.c         ****     return data;
 244:imu.c         **** }...
 1090              		.loc 1 244 0
 1091 00b2 4046     		mov	r0, r8
 1092              	.LVL171:
 1093              		@ sp needed
 1094              	.LVL172:
 1095 00b4 04BC     		pop	{r2}
 1096 00b6 9046     		mov	r8, r2
 1097 00b8 F0BD     		pop	{r4, r5, r6, r7, pc}
 1098              	.L81:
 1099 00ba C046     		.align	2
 1100              	.L80:
 1101 00bc 55550000 		.word	21845
 1102              		.cfi_endproc
 1103              	.LFE38:
 1104              		.size	EBIMU_recv_data, .-EBIMU_recv_data
 1105              		.section	.rodata.str1.4,"aMS",%progbits,1
 1106              		.align	2
 1107              	.LC1:
 1108 0000 3C736225 		.ascii	"<sb%d>\000"
 1108      643E00
 1109 0007 00       		.space	1
 1110              	.LC3:
 1111 0008 3C736F72 		.ascii	"<sor%d>\000"
 1111      25643E00 
 1112              	.LC5:
 1113 0010 3C736F63 		.ascii	"<soc%d>\000"
 1113      25643E00 
 1114              	.LC7:
 1115 0018 3C736F66 		.ascii	"<sof%d>\000"
 1115      25643E00 
 1116              	.LC9:
 1117 0020 3C736F67 		.ascii	"<sog%d>\000"
ARM GAS  C:\Users\iron\AppData\Local\Temp\ccVrLRQd.s 			page 25


 1117      25643E00 
 1118              	.LC11:
 1119 0028 3C736F61 		.ascii	"<soa%d>\000"
 1119      25643E00 
 1120              	.LC13:
 1121 0030 3C736F6D 		.ascii	"<som%d>\000"
 1121      25643E00 
 1122              	.LC15:
 1123 0038 3C736F64 		.ascii	"<sod%d>\000"
 1123      25643E00 
 1124              	.LC17:
 1125 0040 3C736F74 		.ascii	"<sot%d>\000"
 1125      25643E00 
 1126              	.LC19:
 1127 0048 3C736F74 		.ascii	"<sots%d>\000"
 1127      7325643E 
 1127      00
 1128 0051 000000   		.space	3
 1129              	.LC21:
 1130 0054 3C73656D 		.ascii	"<sem%d>\000"
 1130      25643E00 
 1131              	.LC23:
 1132 005c 3C737367 		.ascii	"<ssg%d>\000"
 1132      25643E00 
 1133              	.LC25:
 1134 0064 3C737361 		.ascii	"<ssa%d>\000"
 1134      25643E00 
 1135              	.LC27:
 1136 006c 3C6C7066 		.ascii	"<lpfg%d>\000"
 1136      6725643E 
 1136      00
 1137 0075 000000   		.space	3
 1138              	.LC29:
 1139 0078 3C6C7066 		.ascii	"<lpfa%d>\000"
 1139      6125643E 
 1139      00
 1140 0081 000000   		.space	3
 1141              	.LC31:
 1142 0084 3C736666 		.ascii	"<sff%d>\000"
 1142      25643E00 
 1143              	.LC33:
 1144 008c 3C736666 		.ascii	"<sffa%d>\000"
 1144      6125643E 
 1144      00
 1145 0095 000000   		.space	3
 1146              	.LC35:
 1147 0098 3C736666 		.ascii	"<sffm%d>\000"
 1147      6D25643E 
 1147      00
 1148 00a1 000000   		.space	3
 1149              	.LC37:
 1150 00a4 3C726161 		.ascii	"<raa_l%.2lf>\000"
 1150      5F6C252E 
 1150      326C663E 
 1150      00
 1151 00b1 000000   		.space	3
 1152              	.LC39:
ARM GAS  C:\Users\iron\AppData\Local\Temp\ccVrLRQd.s 			page 26


 1153 00b4 3C726161 		.ascii	"<raa_t%ld>\000"
 1153      5F74256C 
 1153      643E00
 1154 00bf 00       		.space	1
 1155              	.LC41:
 1156 00c0 3C726861 		.ascii	"<rha_l%.2f>\000"
 1156      5F6C252E 
 1156      32663E00 
 1157              	.LC43:
 1158 00cc 3C726861 		.ascii	"<rha_t%ld>\000"
 1158      5F74256C 
 1158      643E00
 1159 00d7 00       		.space	1
 1160              	.LC45:
 1161 00d8 3C616763 		.ascii	"<agc_e%d>\000"
 1161      5F652564 
 1161      3E00
 1162 00e2 0000     		.space	2
 1163              	.LC47:
 1164 00e4 3C616763 		.ascii	"<agc_t%.2f>\000"
 1164      5F74252E 
 1164      32663E00 
 1165              	.LC49:
 1166 00f0 3C616763 		.ascii	"<agc_d%.2f>\000"
 1166      5F64252E 
 1166      32663E00 
 1167              	.LC51:
 1168 00fc 3C617663 		.ascii	"<avcg_e%d>\000"
 1168      675F6525 
 1168      643E00
 1169 0107 00       		.space	1
 1170              	.LC53:
 1171 0108 3C617663 		.ascii	"<avca_e%d>\000"
 1171      615F6525 
 1171      643E00
 1172 0113 00       		.space	1
 1173              	.LC55:
 1174 0114 3C706F73 		.ascii	"<posf_sl%.4f>\000"
 1174      665F736C 
 1174      252E3466 
 1174      3E00
 1175 0122 0000     		.space	2
 1176              	.LC57:
 1177 0124 3C706F73 		.ascii	"<posf_st%d>\000"
 1177      665F7374 
 1177      25643E00 
 1178              	.LC59:
 1179 0130 3C706F73 		.ascii	"<posf_sr%.4f>\000"
 1179      665F7372 
 1179      252E3466 
 1179      3E00
 1180 013e 0000     		.space	2
 1181              	.LC61:
 1182 0140 3C706F73 		.ascii	"<posf_ar%.4f>\000"
 1182      665F6172 
 1182      252E3466 
 1182      3E00
ARM GAS  C:\Users\iron\AppData\Local\Temp\ccVrLRQd.s 			page 27


 1183 014e 0000     		.space	2
 1184              	.LC63:
 1185 0150 3C706F73 		.ascii	"<posz>\000"
 1185      7A3E00
 1186 0157 00       		.space	1
 1187              	.LC65:
 1188 0158 3C63673E 		.ascii	"<cg>\000"
 1188      00
 1189 015d 000000   		.space	3
 1190              	.LC67:
 1191 0160 3C636166 		.ascii	"<caf>\000"
 1191      3E00
 1192 0166 0000     		.space	2
 1193              	.LC69:
 1194 0168 3C636173 		.ascii	"<cas>\000"
 1194      3E00
 1195 016e 0000     		.space	2
 1196              	.LC71:
 1197 0170 3C636D66 		.ascii	"<cmf>\000"
 1197      3E00
 1198 0176 0000     		.space	2
 1199              	.LC73:
 1200 0178 3C636E78 		.ascii	"<cnxy>\000"
 1200      793E00
 1201 017f 00       		.space	1
 1202              	.LC75:
 1203 0180 3C2B636E 		.ascii	"<+cnxy>\000"
 1203      78793E00 
 1204              	.LC77:
 1205 0188 3C636E7A 		.ascii	"<cnz>\000"
 1205      3E00
 1206 018e 0000     		.space	2
 1207              	.LC79:
 1208 0190 3C2B636E 		.ascii	"<+cnz>\000"
 1208      7A3E00
 1209 0197 00       		.space	1
 1210              	.LC81:
 1211 0198 3C636D6F 		.ascii	"<cmo>\000"
 1211      3E00
 1212 019e 0000     		.space	2
 1213              	.LC83:
 1214 01a0 3C636D6F 		.ascii	"<cmox>\000"
 1214      783E00
 1215 01a7 00       		.space	1
 1216              	.LC85:
 1217 01a8 3C636D6F 		.ascii	"<cmoy>\000"
 1217      793E00
 1218 01af 00       		.space	1
 1219              	.LC87:
 1220 01b0 3C636D6F 		.ascii	"<cmoz>\000"
 1220      7A3E00
 1221 01b7 00       		.space	1
 1222              	.LC89:
 1223 01b8 3C636D6F 		.ascii	"<cmoxy>\000"
 1223      78793E00 
 1224              	.LC91:
 1225 01c0 3C636D6F 		.ascii	"<cmoc>\000"
ARM GAS  C:\Users\iron\AppData\Local\Temp\ccVrLRQd.s 			page 28


 1225      633E00
 1226 01c7 00       		.space	1
 1227              	.LC93:
 1228 01c8 3C636667 		.ascii	"<cfg>\000"
 1228      3E00
 1229 01ce 0000     		.space	2
 1230              	.LC95:
 1231 01d0 3C706F6E 		.ascii	"<pons%d>\000"
 1231      7325643E 
 1231      00
 1232 01d9 000000   		.space	3
 1233              	.LC97:
 1234 01dc 3C737461 		.ascii	"<start>\000"
 1234      72743E00 
 1235              	.LC99:
 1236 01e4 3C73746F 		.ascii	"<stop>\000"
 1236      703E00
 1237 01eb 00       		.space	1
 1238              	.LC101:
 1239 01ec 3C6C663E 		.ascii	"<lf>\000"
 1239      00
 1240 01f1 000000   		.space	3
 1241              	.LC103:
 1242 01f4 3C726573 		.ascii	"<reset>\000"
 1242      65743E00 
 1243              	.LC105:
 1244 01fc 3C766572 		.ascii	"<ver>\000"
 1244      3E00
 1245 0202 0000     		.space	2
 1246              	.LC107:
 1247 0204 4F4B0D00 		.ascii	"OK\015\000"
 1248              		.text
 1249              	.Letext0:
 1250              		.file 2 "Generated_Source\\PSoC4/cytypes.h"
 1251              		.file 3 "imu.h"
 1252              		.file 4 "d:\\program files (x86)\\cypress\\psoc creator\\4.2\\psoc creator\\import\\gnu\\arm\\5.4.
 1253              		.file 5 "Generated_Source\\PSoC4/UART_IMU_SPI_UART.h"
 1254              		.file 6 "Generated_Source\\PSoC4/CyLib.h"
 1255              		.file 7 "<built-in>"