ARM GAS  C:\Users\iron\AppData\Local\Temp\ccngss4s.s 			page 1


   1              		.syntax unified
   2              		.cpu cortex-m0
   3              		.fpu softvfp
   4              		.eabi_attribute 20, 1
   5              		.eabi_attribute 21, 1
   6              		.eabi_attribute 23, 3
   7              		.eabi_attribute 24, 1
   8              		.eabi_attribute 25, 1
   9              		.eabi_attribute 26, 1
  10              		.eabi_attribute 30, 1
  11              		.eabi_attribute 34, 0
  12              		.eabi_attribute 18, 4
  13              		.thumb
  14              		.syntax unified
  15              		.file	"myble.c"
  16              		.text
  17              	.Ltext0:
  18              		.cfi_sections	.debug_frame
  19              		.section	.text.is_peripheral,"ax",%progbits
  20              		.align	2
  21              		.code	16
  22              		.thumb_func
  23              		.type	is_peripheral, %function
  24              	is_peripheral:
  25              	.LFB39:
  26              		.file 1 "myble.c"
   1:myble.c       **** #include <stdio.h>
   2:myble.c       **** 
   3:myble.c       **** #include "myble.h"
   4:myble.c       **** #include "imu.h"
   5:myble.c       **** 
   6:myble.c       **** #if (CYBLE_GAP_ROLE_CENTRAL)
   7:myble.c       **** static uint8 peripheral_addr[CYBLE_GAP_BD_ADDR_SIZE] = { 0x01, 0x00, 0x00, 0x50, 0xA0, 0x00 };
   8:myble.c       **** static CYBLE_GAP_BD_ADDR_T bd_addr;
   9:myble.c       **** #endif
  10:myble.c       **** #if (CYBLE_GAP_ROLE_PERIPHERAL)
  11:myble.c       **** uint8 ble_mtu_rsp = FALSE;
  12:myble.c       **** #endif
  13:myble.c       **** #if (CYBLE_GAP_ROLE_CENTRAL)
  14:myble.c       **** uint8 ble_mtu_req = TRUE;
  15:myble.c       **** #endif
  16:myble.c       **** extern uint8* ble_mtu_recv;
  17:myble.c       **** static CYBLE_GATTC_HANDLE_VALUE_NTF_PARAM_T recv;
  18:myble.c       **** 
  19:myble.c       **** #if (CYBLE_GAP_ROLE_CENTRAL)
  20:myble.c       **** static uint8 is_peripheral(uint8* addr);
  21:myble.c       **** #endif
  22:myble.c       **** 
  23:myble.c       **** void ble_callback(uint32 evt, void* param)
  24:myble.c       **** {
  25:myble.c       ****     uint8 error_code;
  26:myble.c       ****     
  27:myble.c       ****     print_ble_state(evt);
  28:myble.c       ****     
  29:myble.c       ****     switch (evt)
  30:myble.c       ****     {
  31:myble.c       ****         case CYBLE_EVT_STACK_ON:
ARM GAS  C:\Users\iron\AppData\Local\Temp\ccngss4s.s 			page 2


  32:myble.c       **** #if (CYBLE_GAP_ROLE_CENTRAL)
  33:myble.c       ****             CyBle_GapcStartScan(CYBLE_SCANNING_FAST);
  34:myble.c       **** #endif
  35:myble.c       **** #if (CYBLE_GAP_ROLE_PERIPHERAL)
  36:myble.c       ****             CyBle_GappStartAdvertisement(CYBLE_ADVERTISING_FAST);
  37:myble.c       **** #endif
  38:myble.c       ****             break;
  39:myble.c       ****         case CYBLE_EVT_GAP_DEVICE_DISCONNECTED:
  40:myble.c       ****             error_code = (*(uint8*)param);
  41:myble.c       ****             print_error_code(error_code);
  42:myble.c       **** #if (CYBLE_GAP_ROLE_CENTRAL)
  43:myble.c       ****             CyBle_GapcStartScan(CYBLE_SCANNING_FAST);
  44:myble.c       **** #endif
  45:myble.c       **** #if (CYBLE_GAP_ROLE_PERIPHERAL)
  46:myble.c       ****             CyBle_GappStartAdvertisement(CYBLE_ADVERTISING_FAST);
  47:myble.c       **** #endif
  48:myble.c       ****             break;
  49:myble.c       **** #if (CYBLE_GAP_ROLE_CENTRAL)
  50:myble.c       ****         case CYBLE_EVT_GAPC_SCAN_PROGRESS_RESULT:
  51:myble.c       ****             printf("CYBLE_EVT_GAPC_SCAN_PROGRESS_RESULT\r\n");
  52:myble.c       ****             CYBLE_GAPC_ADV_REPORT_T adv_report;
  53:myble.c       ****             memcpy(&adv_report, param, sizeof(CYBLE_GAPC_ADV_REPORT_T));
  54:myble.c       ****         
  55:myble.c       ****             if (is_peripheral(adv_report.peerBdAddr) == TRUE)
  56:myble.c       ****             {
  57:myble.c       ****                 CyBle_GapcStopScan();
  58:myble.c       ****                 
  59:myble.c       ****                 memcpy(bd_addr.bdAddr, adv_report.peerBdAddr, CYBLE_GAP_BD_ADDR_SIZE);
  60:myble.c       ****                 bd_addr.type = adv_report.peerAddrType;
  61:myble.c       ****             }
  62:myble.c       ****             break;
  63:myble.c       ****         case CYBLE_EVT_GAPC_SCAN_START_STOP:
  64:myble.c       ****             printf("CYBLE_EVT_GAPC_SCAN_START_STOP\r\n");
  65:myble.c       ****             
  66:myble.c       ****             if (cyBle_state == CYBLE_STATE_DISCONNECTED)
  67:myble.c       ****             {
  68:myble.c       ****                 printf("Connect to ");
  69:myble.c       ****                 for (uint8 i = 0; i < CYBLE_GAP_BD_ADDR_SIZE; i++)
  70:myble.c       ****                 {
  71:myble.c       ****                     printf("%X ", bd_addr.bdAddr[CYBLE_GAP_BD_ADDR_SIZE - i - 1]);
  72:myble.c       ****                 }
  73:myble.c       ****                 printf("\r\n");
  74:myble.c       ****                 printf("result: %X\r\n", CyBle_GapcConnectDevice(&bd_addr));
  75:myble.c       ****             }
  76:myble.c       ****             break;
  77:myble.c       **** #endif
  78:myble.c       ****         case CYBLE_EVT_GATT_CONNECT_IND:
  79:myble.c       ****             break;
  80:myble.c       ****         case CYBLE_EVT_GAP_ENHANCE_CONN_COMPLETE:
  81:myble.c       ****             printf("CYBLE_EVT_GAP_ENHANCE_CONN_COMPLETE\r\n");
  82:myble.c       **** #if (CYBLE_GAP_ROLE_CENTRAL)
  83:myble.c       ****             CyBle_GapAuthReq(cyBle_connHandle.bdHandle, &cyBle_authInfo);
  84:myble.c       **** #endif
  85:myble.c       ****             break;
  86:myble.c       ****         case CYBLE_EVT_GAP_AUTH_COMPLETE:
  87:myble.c       **** #if (CYBLE_GAP_ROLE_PERIPHERAL)
  88:myble.c       ****             CyBle_GattcStartDiscovery(cyBle_connHandle);
ARM GAS  C:\Users\iron\AppData\Local\Temp\ccngss4s.s 			page 3


  89:myble.c       **** #endif
  90:myble.c       ****             break;
  91:myble.c       ****         case CYBLE_EVT_GATTC_DISCOVERY_COMPLETE:
  92:myble.c       **** #if (CYBLE_GAP_ROLE_PERIPHERAL)
  93:myble.c       ****             CyBle_GattcExchangeMtuReq(cyBle_connHandle, 256);
  94:myble.c       **** #endif
  95:myble.c       ****             break;
  96:myble.c       ****         case CYBLE_EVT_GATTS_XCNHG_MTU_REQ:
  97:myble.c       **** #if (CYBLE_GAP_ROLE_CENTRAL)
  98:myble.c       ****             ble_mtu_req = TRUE;
  99:myble.c       **** #endif
 100:myble.c       ****             break;
 101:myble.c       ****         case CYBLE_EVT_GATTC_XCHNG_MTU_RSP:
 102:myble.c       ****             printf("TEST\r\n");
 103:myble.c       **** #if (CYBLE_GAP_ROLE_PERIPHERAL)
 104:myble.c       ****             ble_mtu_rsp = TRUE;
 105:myble.c       **** #endif
 106:myble.c       ****             break;
 107:myble.c       ****         case CYBLE_EVT_GATTS_WRITE_REQ:
 108:myble.c       ****             CyBle_GattsWriteRsp(cyBle_connHandle);
 109:myble.c       ****             break;
 110:myble.c       ****         case CYBLE_EVT_GATTC_WRITE_RSP:
 111:myble.c       ****             break;
 112:myble.c       ****         case CYBLE_EVT_GATTC_HANDLE_VALUE_NTF:
 113:myble.c       ****             recv = (*(CYBLE_GATTC_HANDLE_VALUE_NTF_PARAM_T*)param);
 114:myble.c       ****             //memcpy(ble_mtu_recv, recv.handleValPair.value.val, recv.handleValPair.value.len);
 115:myble.c       ****             
 116:myble.c       ****             IMU imu = (*(IMU*)recv.handleValPair.value.val);
 117:myble.c       ****             
 118:myble.c       ****             printf("sof=(%d %d %d)\r\n", imu.sof[0], imu.sof[1], imu.sof[2]);
 119:myble.c       ****             printf("gyr=(%d %d %d)\r\n", imu.gyr[0], imu.gyr[1], imu.gyr[2]);
 120:myble.c       ****             printf("acc=(%d %d %d)\r\n", imu.acc[0], imu.acc[1], imu.acc[2]);
 121:myble.c       ****             printf("mag=(%d %d %d)\r\n", imu.mag[0], imu.mag[1], imu.mag[2]);
 122:myble.c       ****             
 123:myble.c       ****             break;
 124:myble.c       ****     }
 125:myble.c       **** }
 126:myble.c       **** 
 127:myble.c       **** void print_ble_state(uint32 evt)
 128:myble.c       **** {
 129:myble.c       ****     printf("BLE Callback, evt(%lX), state(", evt); // evt 0x00 ~ 0x7F, 128 events
 130:myble.c       ****     switch (cyBle_state)
 131:myble.c       ****     {
 132:myble.c       ****         case CYBLE_STATE_STOPPED:
 133:myble.c       ****             printf("stopped");
 134:myble.c       ****             break;
 135:myble.c       ****         case CYBLE_STATE_INITIALIZING:
 136:myble.c       ****             printf("initializing");
 137:myble.c       ****             break;
 138:myble.c       ****         case CYBLE_STATE_CONNECTED:
 139:myble.c       ****             printf("connected");
 140:myble.c       ****             break;
 141:myble.c       **** #if (CYBLE_GAP_ROLE_CENTRAL)
 142:myble.c       ****         case CYBLE_STATE_SCANNING:
 143:myble.c       ****             printf("scanning");
 144:myble.c       ****             break;
 145:myble.c       ****         case CYBLE_STATE_CONNECTING:
ARM GAS  C:\Users\iron\AppData\Local\Temp\ccngss4s.s 			page 4


 146:myble.c       ****             printf("connecting");
 147:myble.c       ****             break;
 148:myble.c       **** #endif
 149:myble.c       **** #if (CYBLE_GAP_ROLE_PERIPHERAL)
 150:myble.c       ****         case CYBLE_STATE_ADVERTISING:
 151:myble.c       ****             printf("advertising");
 152:myble.c       ****             break;
 153:myble.c       **** #endif
 154:myble.c       ****         case CYBLE_STATE_DISCONNECTED:
 155:myble.c       ****             printf("disconnected");
 156:myble.c       ****             break;
 157:myble.c       ****         default:
 158:myble.c       ****             printf("unknown");
 159:myble.c       ****             break;
 160:myble.c       ****     }
 161:myble.c       ****     printf(")\r\n");
 162:myble.c       **** }
 163:myble.c       **** 
 164:myble.c       **** void print_error_code(uint8 err)
 165:myble.c       **** {
 166:myble.c       ****     // Specification of the Bluetooth System, v4.2, Volume 2 Part D, Error Code Description
 167:myble.c       ****     switch (err)
 168:myble.c       ****     {
 169:myble.c       ****         case 0x01:
 170:myble.c       ****             printf("Unknown HCI Command");
 171:myble.c       ****             break;
 172:myble.c       ****         case 0x02:
 173:myble.c       ****             printf("Unknown Connection Identifier");
 174:myble.c       ****             break;
 175:myble.c       ****         case 0x03:
 176:myble.c       ****             printf("Hardware Failure");
 177:myble.c       ****             break;
 178:myble.c       ****         case 0x04:
 179:myble.c       ****             printf("Page Timeout");
 180:myble.c       ****             break;
 181:myble.c       ****         case 0x05:
 182:myble.c       ****             printf("Authentication Failure");
 183:myble.c       ****             break;
 184:myble.c       ****         case 0x06:
 185:myble.c       ****             printf("PIN or key Missing");
 186:myble.c       ****             break;
 187:myble.c       ****         case 0x07:
 188:myble.c       ****             printf("Memory Capacity Exceeded");
 189:myble.c       ****             break;
 190:myble.c       ****         case 0x08:
 191:myble.c       ****             printf("Connection Timeout");
 192:myble.c       ****             break;
 193:myble.c       ****         case 0x09:
 194:myble.c       ****             printf("Connection Limit Exceeded");
 195:myble.c       ****             break;
 196:myble.c       ****         case 0x0A:
 197:myble.c       ****             printf("Synchronous Connection Limit to a Device Exceeded");
 198:myble.c       ****             break;
 199:myble.c       ****         case 0x0B:
 200:myble.c       ****             printf("ACL Connection Already Exists");
 201:myble.c       ****             break;
 202:myble.c       ****         case 0x0C:
ARM GAS  C:\Users\iron\AppData\Local\Temp\ccngss4s.s 			page 5


 203:myble.c       ****             printf("Command Disallowed");
 204:myble.c       ****             break;
 205:myble.c       ****         case 0x0D:
 206:myble.c       ****             printf("Connection Rejected due to Limited Resources");
 207:myble.c       ****             break;
 208:myble.c       ****         case 0x0E:
 209:myble.c       ****             printf("Connection Rejected due to Security Reasons");
 210:myble.c       ****             break;
 211:myble.c       ****         case 0x0F:
 212:myble.c       ****             printf("Connection Rejected due to Unacceptable BD_ADDR");
 213:myble.c       ****             break;
 214:myble.c       ****         case 0x10:
 215:myble.c       ****             printf("Connection Accept Timeout Exceeded");
 216:myble.c       ****             break;
 217:myble.c       ****         case 0x11:
 218:myble.c       ****             printf("Unsupported Feature or Parameter Value");
 219:myble.c       ****             break;
 220:myble.c       ****         case 0x12:
 221:myble.c       ****             printf("Invalid HCI Command Parameters");
 222:myble.c       ****             break;
 223:myble.c       ****         case 0x13:
 224:myble.c       ****             printf("Remote User Terminated Connection");
 225:myble.c       ****             break;
 226:myble.c       ****         case 0x14:
 227:myble.c       ****             printf("Remote Device Terminated Connection due to Low Resources");
 228:myble.c       ****             break;
 229:myble.c       ****         case 0x15:
 230:myble.c       ****             printf("Remote Device Terminated Connection due to Power Off");
 231:myble.c       ****             break;
 232:myble.c       ****         case 0x16:
 233:myble.c       ****             printf("Connection Terminated by Local Host");
 234:myble.c       ****             break;
 235:myble.c       ****         case 0x17:
 236:myble.c       ****             printf("Repeated Attempts");
 237:myble.c       ****             break;
 238:myble.c       ****         case 0x18:
 239:myble.c       ****             printf("Pairing not Allowed");
 240:myble.c       ****             break;
 241:myble.c       ****         case 0x19:
 242:myble.c       ****             printf("Unknown LMP PDU");
 243:myble.c       ****             break;
 244:myble.c       ****         case 0x1A:
 245:myble.c       ****             printf("Unsupported Remote Feature / Unsupported LMP Feature");
 246:myble.c       ****             break;
 247:myble.c       ****         case 0x1B:
 248:myble.c       ****             printf("SCO Offset Rejected");
 249:myble.c       ****             break;
 250:myble.c       ****         case 0x1C:
 251:myble.c       ****             printf("SCO Interval Rejected");
 252:myble.c       ****             break;
 253:myble.c       ****         case 0x1D:
 254:myble.c       ****             printf("SCO Air Mode Rejected");
 255:myble.c       ****             break;
 256:myble.c       ****         case 0x1E:
 257:myble.c       ****             printf("Invalid LMP Parameters / Invalid LL Parameters");
 258:myble.c       ****             break;
 259:myble.c       ****         case 0x1F:
ARM GAS  C:\Users\iron\AppData\Local\Temp\ccngss4s.s 			page 6


 260:myble.c       ****             printf("Unspecified Error");
 261:myble.c       ****             break;
 262:myble.c       ****         case 0x20:
 263:myble.c       ****             printf("Unsupported LMP Parameter Value / Unsupportred LL Parameter Value");
 264:myble.c       ****             break;
 265:myble.c       ****         case 0x21:
 266:myble.c       ****             printf("Role Change Not Allowed");
 267:myble.c       ****             break;
 268:myble.c       ****         case 0x22:
 269:myble.c       ****             printf("LMP Response Timeout / LL Response Timeout");
 270:myble.c       ****             break;
 271:myble.c       ****         case 0x23:
 272:myble.c       ****             printf("LMP Error Transaction Collision");
 273:myble.c       ****             break;
 274:myble.c       ****         case 0x24:
 275:myble.c       ****             printf("LMP PDU Not Allowed");
 276:myble.c       ****             break;
 277:myble.c       ****         case 0x25:
 278:myble.c       ****             printf("Encyption Mode Not Acceptable");
 279:myble.c       ****             break;
 280:myble.c       ****         case 0x26:
 281:myble.c       ****             printf("Link Key cannot be Changed");
 282:myble.c       ****             break;
 283:myble.c       ****         case 0x27:
 284:myble.c       ****             printf("Required QoS Not Supported");
 285:myble.c       ****             break;
 286:myble.c       ****         case 0x28:
 287:myble.c       ****             printf("Instant Passed");
 288:myble.c       ****             break;
 289:myble.c       ****         case 0x29:
 290:myble.c       ****             printf("Pairing with Unit Key Not Supported");
 291:myble.c       ****             break;
 292:myble.c       ****         case 0x2A:
 293:myble.c       ****             printf("Different Transaction Collision");
 294:myble.c       ****             break;
 295:myble.c       ****         case 0x2C:
 296:myble.c       ****             printf("QoS Unacceptable Parameter");
 297:myble.c       ****             break;
 298:myble.c       ****         case 0x2D:
 299:myble.c       ****             printf("QoS Rejected");
 300:myble.c       ****             break;
 301:myble.c       ****         case 0x2E:
 302:myble.c       ****             printf("Channel Assessment Not Supported");
 303:myble.c       ****             break;
 304:myble.c       ****         case 0x2F:
 305:myble.c       ****             printf("Insufficient Security");
 306:myble.c       ****             break;
 307:myble.c       ****         case 0x30:
 308:myble.c       ****             printf("Parameter out of Mandatory Range");
 309:myble.c       ****             break;
 310:myble.c       ****         case 0x32:
 311:myble.c       ****             printf("Role swith Pending");
 312:myble.c       ****             break;
 313:myble.c       ****         case 0x34:
 314:myble.c       ****             printf("Reserved Slot Violation");
 315:myble.c       ****             break;
 316:myble.c       ****         case 0x35:
ARM GAS  C:\Users\iron\AppData\Local\Temp\ccngss4s.s 			page 7


 317:myble.c       ****             printf("Role Switch Failed");
 318:myble.c       ****             break;
 319:myble.c       ****         case 0x36:
 320:myble.c       ****             printf("Extended Inquiry Response Too Large");
 321:myble.c       ****             break;
 322:myble.c       ****         case 0x37:
 323:myble.c       ****             printf("Simple Pairing Not Supported By Host");
 324:myble.c       ****             break;
 325:myble.c       ****         case 0x38:
 326:myble.c       ****             printf("Host Busy-Pairing");
 327:myble.c       ****             break;
 328:myble.c       ****         case 0x39:
 329:myble.c       ****             printf("Connection Rejected Due To Not Suitable Channel Found");
 330:myble.c       ****             break;
 331:myble.c       ****         case 0x3A:
 332:myble.c       ****             printf("Controller Busy");
 333:myble.c       ****             break;
 334:myble.c       ****         case 0x3B:
 335:myble.c       ****             printf("Unacceptable Connection Parameters");
 336:myble.c       ****             break;
 337:myble.c       ****         case 0x3C:
 338:myble.c       ****             printf("Directed Advertising Timeout");
 339:myble.c       ****             break;
 340:myble.c       ****         case 0x3D:
 341:myble.c       ****             printf("Connection Terminated Due To MIC Failure");
 342:myble.c       ****             break;
 343:myble.c       ****         case 0x3E:
 344:myble.c       ****             printf("Connection Failed To Be Established");
 345:myble.c       ****             break;
 346:myble.c       ****         case 0x3F:
 347:myble.c       ****             printf("MAC Connection Failed");
 348:myble.c       ****             break;
 349:myble.c       ****         case 0x40:
 350:myble.c       ****             printf("Coarse Clock Adjustment Rejected but Will Try to Adjusting Using Clock Dragging
 351:myble.c       ****             break;
 352:myble.c       ****     }
 353:myble.c       ****     printf("\r\n");
 354:myble.c       **** }
 355:myble.c       **** 
 356:myble.c       **** #if (CYBLE_GAP_ROLE_CENTRAL)
 357:myble.c       **** uint8 is_peripheral(uint8* addr)
 358:myble.c       **** {
  27              		.loc 1 358 0
  28              		.cfi_startproc
  29              		@ args = 0, pretend = 0, frame = 0
  30              		@ frame_needed = 0, uses_anonymous_args = 0
  31              		@ link register save eliminated.
  32              	.LVL0:
  33              	.LBB2:
 359:myble.c       ****     for (uint8 i = 0; i < CYBLE_GAP_BD_ADDR_SIZE; i++)
  34              		.loc 1 359 0
  35 0000 0023     		movs	r3, #0
  36 0002 06E0     		b	.L2
  37              	.LVL1:
  38              	.L4:
 360:myble.c       ****     {
 361:myble.c       ****         if (addr[i] != peripheral_addr[i])
ARM GAS  C:\Users\iron\AppData\Local\Temp\ccngss4s.s 			page 8


  39              		.loc 1 361 0
  40 0004 C15C     		ldrb	r1, [r0, r3]
  41 0006 064A     		ldr	r2, .L6
  42 0008 D25C     		ldrb	r2, [r2, r3]
  43 000a 9142     		cmp	r1, r2
  44 000c 05D1     		bne	.L5
 359:myble.c       ****     for (uint8 i = 0; i < CYBLE_GAP_BD_ADDR_SIZE; i++)
  45              		.loc 1 359 0 discriminator 2
  46 000e 0133     		adds	r3, r3, #1
  47              	.LVL2:
  48 0010 DBB2     		uxtb	r3, r3
  49              	.LVL3:
  50              	.L2:
 359:myble.c       ****     for (uint8 i = 0; i < CYBLE_GAP_BD_ADDR_SIZE; i++)
  51              		.loc 1 359 0 is_stmt 0 discriminator 1
  52 0012 052B     		cmp	r3, #5
  53 0014 F6D9     		bls	.L4
  54              	.LBE2:
 362:myble.c       ****         {
 363:myble.c       ****             return FALSE;
 364:myble.c       ****         }
 365:myble.c       ****     }
 366:myble.c       ****     return TRUE;
  55              		.loc 1 366 0 is_stmt 1
  56 0016 0120     		movs	r0, #1
  57              	.LVL4:
  58              	.LBB3:
  59 0018 00E0     		b	.L3
  60              	.LVL5:
  61              	.L5:
 363:myble.c       ****         }
  62              		.loc 1 363 0
  63 001a 0020     		movs	r0, #0
  64              	.LVL6:
  65              	.L3:
  66              	.LBE3:
 367:myble.c       **** }
  67              		.loc 1 367 0
  68              		@ sp needed
  69 001c 7047     		bx	lr
  70              	.L7:
  71 001e C046     		.align	2
  72              	.L6:
  73 0020 1C010000 		.word	.LANCHOR0
  74              		.cfi_endproc
  75              	.LFE39:
  76              		.size	is_peripheral, .-is_peripheral
  77              		.section	.text.print_ble_state,"ax",%progbits
  78              		.align	2
  79              		.global	print_ble_state
  80              		.code	16
  81              		.thumb_func
  82              		.type	print_ble_state, %function
  83              	print_ble_state:
  84              	.LFB37:
 128:myble.c       ****     printf("BLE Callback, evt(%lX), state(", evt); // evt 0x00 ~ 0x7F, 128 events
  85              		.loc 1 128 0
ARM GAS  C:\Users\iron\AppData\Local\Temp\ccngss4s.s 			page 9


  86              		.cfi_startproc
  87              		@ args = 0, pretend = 0, frame = 0
  88              		@ frame_needed = 0, uses_anonymous_args = 0
  89              	.LVL7:
  90 0000 10B5     		push	{r4, lr}
  91              		.cfi_def_cfa_offset 8
  92              		.cfi_offset 4, -8
  93              		.cfi_offset 14, -4
  94 0002 0100     		movs	r1, r0
 129:myble.c       ****     switch (cyBle_state)
  95              		.loc 1 129 0
  96 0004 1448     		ldr	r0, .L18
  97              	.LVL8:
  98 0006 FFF7FEFF 		bl	printf
  99              	.LVL9:
 130:myble.c       ****     {
 100              		.loc 1 130 0
 101 000a 144B     		ldr	r3, .L18+4
 102 000c 1A78     		ldrb	r2, [r3]
 103 000e 052A     		cmp	r2, #5
 104 0010 1BD8     		bhi	.L9
 105 0012 9300     		lsls	r3, r2, #2
 106 0014 124A     		ldr	r2, .L18+8
 107 0016 D358     		ldr	r3, [r2, r3]
 108 0018 9F46     		mov	pc, r3
 109              		.section	.rodata
 110              		.align	2
 111              	.L11:
 112 0000 1A000000 		.word	.L10
 113 0004 22000000 		.word	.L12
 114 0008 2A000000 		.word	.L13
 115 000c 32000000 		.word	.L14
 116 0010 3A000000 		.word	.L15
 117 0014 42000000 		.word	.L16
 118              		.section	.text.print_ble_state
 119              	.L10:
 133:myble.c       ****             break;
 120              		.loc 1 133 0
 121 001a 1248     		ldr	r0, .L18+12
 122 001c FFF7FEFF 		bl	printf
 123              	.LVL10:
 134:myble.c       ****         case CYBLE_STATE_INITIALIZING:
 124              		.loc 1 134 0
 125 0020 16E0     		b	.L17
 126              	.L12:
 136:myble.c       ****             break;
 127              		.loc 1 136 0
 128 0022 1148     		ldr	r0, .L18+16
 129 0024 FFF7FEFF 		bl	printf
 130              	.LVL11:
 137:myble.c       ****         case CYBLE_STATE_CONNECTED:
 131              		.loc 1 137 0
 132 0028 12E0     		b	.L17
 133              	.L13:
 139:myble.c       ****             break;
 134              		.loc 1 139 0
 135 002a 1048     		ldr	r0, .L18+20
ARM GAS  C:\Users\iron\AppData\Local\Temp\ccngss4s.s 			page 10


 136 002c FFF7FEFF 		bl	printf
 137              	.LVL12:
 140:myble.c       **** #if (CYBLE_GAP_ROLE_CENTRAL)
 138              		.loc 1 140 0
 139 0030 0EE0     		b	.L17
 140              	.L14:
 143:myble.c       ****             break;
 141              		.loc 1 143 0
 142 0032 0F48     		ldr	r0, .L18+24
 143 0034 FFF7FEFF 		bl	printf
 144              	.LVL13:
 144:myble.c       ****         case CYBLE_STATE_CONNECTING:
 145              		.loc 1 144 0
 146 0038 0AE0     		b	.L17
 147              	.L15:
 146:myble.c       ****             break;
 148              		.loc 1 146 0
 149 003a 0E48     		ldr	r0, .L18+28
 150 003c FFF7FEFF 		bl	printf
 151              	.LVL14:
 147:myble.c       **** #endif
 152              		.loc 1 147 0
 153 0040 06E0     		b	.L17
 154              	.L16:
 155:myble.c       ****             break;
 155              		.loc 1 155 0
 156 0042 0D48     		ldr	r0, .L18+32
 157 0044 FFF7FEFF 		bl	printf
 158              	.LVL15:
 156:myble.c       ****         default:
 159              		.loc 1 156 0
 160 0048 02E0     		b	.L17
 161              	.L9:
 158:myble.c       ****             break;
 162              		.loc 1 158 0
 163 004a 0C48     		ldr	r0, .L18+36
 164 004c FFF7FEFF 		bl	printf
 165              	.LVL16:
 166              	.L17:
 161:myble.c       **** }
 167              		.loc 1 161 0
 168 0050 0B48     		ldr	r0, .L18+40
 169 0052 FFF7FEFF 		bl	puts
 170              	.LVL17:
 162:myble.c       **** 
 171              		.loc 1 162 0
 172              		@ sp needed
 173 0056 10BD     		pop	{r4, pc}
 174              	.L19:
 175              		.align	2
 176              	.L18:
 177 0058 00000000 		.word	.LC1
 178 005c 00000000 		.word	cyBle_state
 179 0060 00000000 		.word	.L11
 180 0064 20000000 		.word	.LC5
 181 0068 28000000 		.word	.LC7
 182 006c 38000000 		.word	.LC9
ARM GAS  C:\Users\iron\AppData\Local\Temp\ccngss4s.s 			page 11


 183 0070 44000000 		.word	.LC11
 184 0074 50000000 		.word	.LC13
 185 0078 5C000000 		.word	.LC15
 186 007c 6C000000 		.word	.LC17
 187 0080 74000000 		.word	.LC19
 188              		.cfi_endproc
 189              	.LFE37:
 190              		.size	print_ble_state, .-print_ble_state
 191              		.section	.text.print_error_code,"ax",%progbits
 192              		.align	2
 193              		.global	print_error_code
 194              		.code	16
 195              		.thumb_func
 196              		.type	print_error_code, %function
 197              	print_error_code:
 198              	.LFB38:
 165:myble.c       ****     // Specification of the Bluetooth System, v4.2, Volume 2 Part D, Error Code Description
 199              		.loc 1 165 0
 200              		.cfi_startproc
 201              		@ args = 0, pretend = 0, frame = 0
 202              		@ frame_needed = 0, uses_anonymous_args = 0
 203              	.LVL18:
 204 0000 10B5     		push	{r4, lr}
 205              		.cfi_def_cfa_offset 8
 206              		.cfi_offset 4, -8
 207              		.cfi_offset 14, -4
 167:myble.c       ****     {
 208              		.loc 1 167 0
 209 0002 4028     		cmp	r0, #64
 210 0004 00D9     		bls	.LCB168
 211 0006 F6E0     		b	.L21	@long jump
 212              	.LCB168:
 213 0008 8000     		lsls	r0, r0, #2
 214              	.LVL19:
 215 000a 7D4B     		ldr	r3, .L84
 216 000c 1B58     		ldr	r3, [r3, r0]
 217 000e 9F46     		mov	pc, r3
 218              		.section	.rodata
 219              		.align	2
 220              	.L23:
 221 0018 F6010000 		.word	.L21
 222 001c 10000000 		.word	.L22
 223 0020 18000000 		.word	.L24
 224 0024 20000000 		.word	.L25
 225 0028 28000000 		.word	.L26
 226 002c 30000000 		.word	.L27
 227 0030 38000000 		.word	.L28
 228 0034 40000000 		.word	.L29
 229 0038 48000000 		.word	.L30
 230 003c 50000000 		.word	.L31
 231 0040 58000000 		.word	.L32
 232 0044 60000000 		.word	.L33
 233 0048 68000000 		.word	.L34
 234 004c 70000000 		.word	.L35
 235 0050 78000000 		.word	.L36
 236 0054 80000000 		.word	.L37
 237 0058 88000000 		.word	.L38
ARM GAS  C:\Users\iron\AppData\Local\Temp\ccngss4s.s 			page 12


 238 005c 90000000 		.word	.L39
 239 0060 98000000 		.word	.L40
 240 0064 A0000000 		.word	.L41
 241 0068 A8000000 		.word	.L42
 242 006c B0000000 		.word	.L43
 243 0070 B8000000 		.word	.L44
 244 0074 C0000000 		.word	.L45
 245 0078 C8000000 		.word	.L46
 246 007c D0000000 		.word	.L47
 247 0080 D8000000 		.word	.L48
 248 0084 E0000000 		.word	.L49
 249 0088 E8000000 		.word	.L50
 250 008c F0000000 		.word	.L51
 251 0090 F8000000 		.word	.L52
 252 0094 00010000 		.word	.L53
 253 0098 08010000 		.word	.L54
 254 009c 10010000 		.word	.L55
 255 00a0 18010000 		.word	.L56
 256 00a4 20010000 		.word	.L57
 257 00a8 28010000 		.word	.L58
 258 00ac 30010000 		.word	.L59
 259 00b0 38010000 		.word	.L60
 260 00b4 40010000 		.word	.L61
 261 00b8 48010000 		.word	.L62
 262 00bc 50010000 		.word	.L63
 263 00c0 58010000 		.word	.L64
 264 00c4 F6010000 		.word	.L21
 265 00c8 60010000 		.word	.L65
 266 00cc 68010000 		.word	.L66
 267 00d0 70010000 		.word	.L67
 268 00d4 78010000 		.word	.L68
 269 00d8 80010000 		.word	.L69
 270 00dc F6010000 		.word	.L21
 271 00e0 88010000 		.word	.L70
 272 00e4 F6010000 		.word	.L21
 273 00e8 90010000 		.word	.L71
 274 00ec 98010000 		.word	.L72
 275 00f0 A0010000 		.word	.L73
 276 00f4 A8010000 		.word	.L74
 277 00f8 B0010000 		.word	.L75
 278 00fc B8010000 		.word	.L76
 279 0100 C0010000 		.word	.L77
 280 0104 C8010000 		.word	.L78
 281 0108 D0010000 		.word	.L79
 282 010c D8010000 		.word	.L80
 283 0110 E0010000 		.word	.L81
 284 0114 E8010000 		.word	.L82
 285 0118 F0010000 		.word	.L83
 286              		.section	.text.print_error_code
 287              	.L22:
 170:myble.c       ****             break;
 288              		.loc 1 170 0
 289 0010 7C48     		ldr	r0, .L84+4
 290 0012 FFF7FEFF 		bl	printf
 291              	.LVL20:
 171:myble.c       ****         case 0x02:
 292              		.loc 1 171 0
ARM GAS  C:\Users\iron\AppData\Local\Temp\ccngss4s.s 			page 13


 293 0016 EEE0     		b	.L21
 294              	.L24:
 173:myble.c       ****             break;
 295              		.loc 1 173 0
 296 0018 7B48     		ldr	r0, .L84+8
 297 001a FFF7FEFF 		bl	printf
 298              	.LVL21:
 174:myble.c       ****         case 0x03:
 299              		.loc 1 174 0
 300 001e EAE0     		b	.L21
 301              	.L25:
 176:myble.c       ****             break;
 302              		.loc 1 176 0
 303 0020 7A48     		ldr	r0, .L84+12
 304 0022 FFF7FEFF 		bl	printf
 305              	.LVL22:
 177:myble.c       ****         case 0x04:
 306              		.loc 1 177 0
 307 0026 E6E0     		b	.L21
 308              	.L26:
 179:myble.c       ****             break;
 309              		.loc 1 179 0
 310 0028 7948     		ldr	r0, .L84+16
 311 002a FFF7FEFF 		bl	printf
 312              	.LVL23:
 180:myble.c       ****         case 0x05:
 313              		.loc 1 180 0
 314 002e E2E0     		b	.L21
 315              	.L27:
 182:myble.c       ****             break;
 316              		.loc 1 182 0
 317 0030 7848     		ldr	r0, .L84+20
 318 0032 FFF7FEFF 		bl	printf
 319              	.LVL24:
 183:myble.c       ****         case 0x06:
 320              		.loc 1 183 0
 321 0036 DEE0     		b	.L21
 322              	.L28:
 185:myble.c       ****             break;
 323              		.loc 1 185 0
 324 0038 7748     		ldr	r0, .L84+24
 325 003a FFF7FEFF 		bl	printf
 326              	.LVL25:
 186:myble.c       ****         case 0x07:
 327              		.loc 1 186 0
 328 003e DAE0     		b	.L21
 329              	.L29:
 188:myble.c       ****             break;
 330              		.loc 1 188 0
 331 0040 7648     		ldr	r0, .L84+28
 332 0042 FFF7FEFF 		bl	printf
 333              	.LVL26:
 189:myble.c       ****         case 0x08:
 334              		.loc 1 189 0
 335 0046 D6E0     		b	.L21
 336              	.L30:
 191:myble.c       ****             break;
ARM GAS  C:\Users\iron\AppData\Local\Temp\ccngss4s.s 			page 14


 337              		.loc 1 191 0
 338 0048 7548     		ldr	r0, .L84+32
 339 004a FFF7FEFF 		bl	printf
 340              	.LVL27:
 192:myble.c       ****         case 0x09:
 341              		.loc 1 192 0
 342 004e D2E0     		b	.L21
 343              	.L31:
 194:myble.c       ****             break;
 344              		.loc 1 194 0
 345 0050 7448     		ldr	r0, .L84+36
 346 0052 FFF7FEFF 		bl	printf
 347              	.LVL28:
 195:myble.c       ****         case 0x0A:
 348              		.loc 1 195 0
 349 0056 CEE0     		b	.L21
 350              	.L32:
 197:myble.c       ****             break;
 351              		.loc 1 197 0
 352 0058 7348     		ldr	r0, .L84+40
 353 005a FFF7FEFF 		bl	printf
 354              	.LVL29:
 198:myble.c       ****         case 0x0B:
 355              		.loc 1 198 0
 356 005e CAE0     		b	.L21
 357              	.L33:
 200:myble.c       ****             break;
 358              		.loc 1 200 0
 359 0060 7248     		ldr	r0, .L84+44
 360 0062 FFF7FEFF 		bl	printf
 361              	.LVL30:
 201:myble.c       ****         case 0x0C:
 362              		.loc 1 201 0
 363 0066 C6E0     		b	.L21
 364              	.L34:
 203:myble.c       ****             break;
 365              		.loc 1 203 0
 366 0068 7148     		ldr	r0, .L84+48
 367 006a FFF7FEFF 		bl	printf
 368              	.LVL31:
 204:myble.c       ****         case 0x0D:
 369              		.loc 1 204 0
 370 006e C2E0     		b	.L21
 371              	.L35:
 206:myble.c       ****             break;
 372              		.loc 1 206 0
 373 0070 7048     		ldr	r0, .L84+52
 374 0072 FFF7FEFF 		bl	printf
 375              	.LVL32:
 207:myble.c       ****         case 0x0E:
 376              		.loc 1 207 0
 377 0076 BEE0     		b	.L21
 378              	.L36:
 209:myble.c       ****             break;
 379              		.loc 1 209 0
 380 0078 6F48     		ldr	r0, .L84+56
 381 007a FFF7FEFF 		bl	printf
ARM GAS  C:\Users\iron\AppData\Local\Temp\ccngss4s.s 			page 15


 382              	.LVL33:
 210:myble.c       ****         case 0x0F:
 383              		.loc 1 210 0
 384 007e BAE0     		b	.L21
 385              	.L37:
 212:myble.c       ****             break;
 386              		.loc 1 212 0
 387 0080 6E48     		ldr	r0, .L84+60
 388 0082 FFF7FEFF 		bl	printf
 389              	.LVL34:
 213:myble.c       ****         case 0x10:
 390              		.loc 1 213 0
 391 0086 B6E0     		b	.L21
 392              	.L38:
 215:myble.c       ****             break;
 393              		.loc 1 215 0
 394 0088 6D48     		ldr	r0, .L84+64
 395 008a FFF7FEFF 		bl	printf
 396              	.LVL35:
 216:myble.c       ****         case 0x11:
 397              		.loc 1 216 0
 398 008e B2E0     		b	.L21
 399              	.L39:
 218:myble.c       ****             break;
 400              		.loc 1 218 0
 401 0090 6C48     		ldr	r0, .L84+68
 402 0092 FFF7FEFF 		bl	printf
 403              	.LVL36:
 219:myble.c       ****         case 0x12:
 404              		.loc 1 219 0
 405 0096 AEE0     		b	.L21
 406              	.L40:
 221:myble.c       ****             break;
 407              		.loc 1 221 0
 408 0098 6B48     		ldr	r0, .L84+72
 409 009a FFF7FEFF 		bl	printf
 410              	.LVL37:
 222:myble.c       ****         case 0x13:
 411              		.loc 1 222 0
 412 009e AAE0     		b	.L21
 413              	.L41:
 224:myble.c       ****             break;
 414              		.loc 1 224 0
 415 00a0 6A48     		ldr	r0, .L84+76
 416 00a2 FFF7FEFF 		bl	printf
 417              	.LVL38:
 225:myble.c       ****         case 0x14:
 418              		.loc 1 225 0
 419 00a6 A6E0     		b	.L21
 420              	.L42:
 227:myble.c       ****             break;
 421              		.loc 1 227 0
 422 00a8 6948     		ldr	r0, .L84+80
 423 00aa FFF7FEFF 		bl	printf
 424              	.LVL39:
 228:myble.c       ****         case 0x15:
 425              		.loc 1 228 0
ARM GAS  C:\Users\iron\AppData\Local\Temp\ccngss4s.s 			page 16


 426 00ae A2E0     		b	.L21
 427              	.L43:
 230:myble.c       ****             break;
 428              		.loc 1 230 0
 429 00b0 6848     		ldr	r0, .L84+84
 430 00b2 FFF7FEFF 		bl	printf
 431              	.LVL40:
 231:myble.c       ****         case 0x16:
 432              		.loc 1 231 0
 433 00b6 9EE0     		b	.L21
 434              	.L44:
 233:myble.c       ****             break;
 435              		.loc 1 233 0
 436 00b8 6748     		ldr	r0, .L84+88
 437 00ba FFF7FEFF 		bl	printf
 438              	.LVL41:
 234:myble.c       ****         case 0x17:
 439              		.loc 1 234 0
 440 00be 9AE0     		b	.L21
 441              	.L45:
 236:myble.c       ****             break;
 442              		.loc 1 236 0
 443 00c0 6648     		ldr	r0, .L84+92
 444 00c2 FFF7FEFF 		bl	printf
 445              	.LVL42:
 237:myble.c       ****         case 0x18:
 446              		.loc 1 237 0
 447 00c6 96E0     		b	.L21
 448              	.L46:
 239:myble.c       ****             break;
 449              		.loc 1 239 0
 450 00c8 6548     		ldr	r0, .L84+96
 451 00ca FFF7FEFF 		bl	printf
 452              	.LVL43:
 240:myble.c       ****         case 0x19:
 453              		.loc 1 240 0
 454 00ce 92E0     		b	.L21
 455              	.L47:
 242:myble.c       ****             break;
 456              		.loc 1 242 0
 457 00d0 6448     		ldr	r0, .L84+100
 458 00d2 FFF7FEFF 		bl	printf
 459              	.LVL44:
 243:myble.c       ****         case 0x1A:
 460              		.loc 1 243 0
 461 00d6 8EE0     		b	.L21
 462              	.L48:
 245:myble.c       ****             break;
 463              		.loc 1 245 0
 464 00d8 6348     		ldr	r0, .L84+104
 465 00da FFF7FEFF 		bl	printf
 466              	.LVL45:
 246:myble.c       ****         case 0x1B:
 467              		.loc 1 246 0
 468 00de 8AE0     		b	.L21
 469              	.L49:
 248:myble.c       ****             break;
ARM GAS  C:\Users\iron\AppData\Local\Temp\ccngss4s.s 			page 17


 470              		.loc 1 248 0
 471 00e0 6248     		ldr	r0, .L84+108
 472 00e2 FFF7FEFF 		bl	printf
 473              	.LVL46:
 249:myble.c       ****         case 0x1C:
 474              		.loc 1 249 0
 475 00e6 86E0     		b	.L21
 476              	.L50:
 251:myble.c       ****             break;
 477              		.loc 1 251 0
 478 00e8 6148     		ldr	r0, .L84+112
 479 00ea FFF7FEFF 		bl	printf
 480              	.LVL47:
 252:myble.c       ****         case 0x1D:
 481              		.loc 1 252 0
 482 00ee 82E0     		b	.L21
 483              	.L51:
 254:myble.c       ****             break;
 484              		.loc 1 254 0
 485 00f0 6048     		ldr	r0, .L84+116
 486 00f2 FFF7FEFF 		bl	printf
 487              	.LVL48:
 255:myble.c       ****         case 0x1E:
 488              		.loc 1 255 0
 489 00f6 7EE0     		b	.L21
 490              	.L52:
 257:myble.c       ****             break;
 491              		.loc 1 257 0
 492 00f8 5F48     		ldr	r0, .L84+120
 493 00fa FFF7FEFF 		bl	printf
 494              	.LVL49:
 258:myble.c       ****         case 0x1F:
 495              		.loc 1 258 0
 496 00fe 7AE0     		b	.L21
 497              	.L53:
 260:myble.c       ****             break;
 498              		.loc 1 260 0
 499 0100 5E48     		ldr	r0, .L84+124
 500 0102 FFF7FEFF 		bl	printf
 501              	.LVL50:
 261:myble.c       ****         case 0x20:
 502              		.loc 1 261 0
 503 0106 76E0     		b	.L21
 504              	.L54:
 263:myble.c       ****             break;
 505              		.loc 1 263 0
 506 0108 5D48     		ldr	r0, .L84+128
 507 010a FFF7FEFF 		bl	printf
 508              	.LVL51:
 264:myble.c       ****         case 0x21:
 509              		.loc 1 264 0
 510 010e 72E0     		b	.L21
 511              	.L55:
 266:myble.c       ****             break;
 512              		.loc 1 266 0
 513 0110 5C48     		ldr	r0, .L84+132
 514 0112 FFF7FEFF 		bl	printf
ARM GAS  C:\Users\iron\AppData\Local\Temp\ccngss4s.s 			page 18


 515              	.LVL52:
 267:myble.c       ****         case 0x22:
 516              		.loc 1 267 0
 517 0116 6EE0     		b	.L21
 518              	.L56:
 269:myble.c       ****             break;
 519              		.loc 1 269 0
 520 0118 5B48     		ldr	r0, .L84+136
 521 011a FFF7FEFF 		bl	printf
 522              	.LVL53:
 270:myble.c       ****         case 0x23:
 523              		.loc 1 270 0
 524 011e 6AE0     		b	.L21
 525              	.L57:
 272:myble.c       ****             break;
 526              		.loc 1 272 0
 527 0120 5A48     		ldr	r0, .L84+140
 528 0122 FFF7FEFF 		bl	printf
 529              	.LVL54:
 273:myble.c       ****         case 0x24:
 530              		.loc 1 273 0
 531 0126 66E0     		b	.L21
 532              	.L58:
 275:myble.c       ****             break;
 533              		.loc 1 275 0
 534 0128 5948     		ldr	r0, .L84+144
 535 012a FFF7FEFF 		bl	printf
 536              	.LVL55:
 276:myble.c       ****         case 0x25:
 537              		.loc 1 276 0
 538 012e 62E0     		b	.L21
 539              	.L59:
 278:myble.c       ****             break;
 540              		.loc 1 278 0
 541 0130 5848     		ldr	r0, .L84+148
 542 0132 FFF7FEFF 		bl	printf
 543              	.LVL56:
 279:myble.c       ****         case 0x26:
 544              		.loc 1 279 0
 545 0136 5EE0     		b	.L21
 546              	.L60:
 281:myble.c       ****             break;
 547              		.loc 1 281 0
 548 0138 5748     		ldr	r0, .L84+152
 549 013a FFF7FEFF 		bl	printf
 550              	.LVL57:
 282:myble.c       ****         case 0x27:
 551              		.loc 1 282 0
 552 013e 5AE0     		b	.L21
 553              	.L61:
 284:myble.c       ****             break;
 554              		.loc 1 284 0
 555 0140 5648     		ldr	r0, .L84+156
 556 0142 FFF7FEFF 		bl	printf
 557              	.LVL58:
 285:myble.c       ****         case 0x28:
 558              		.loc 1 285 0
ARM GAS  C:\Users\iron\AppData\Local\Temp\ccngss4s.s 			page 19


 559 0146 56E0     		b	.L21
 560              	.L62:
 287:myble.c       ****             break;
 561              		.loc 1 287 0
 562 0148 5548     		ldr	r0, .L84+160
 563 014a FFF7FEFF 		bl	printf
 564              	.LVL59:
 288:myble.c       ****         case 0x29:
 565              		.loc 1 288 0
 566 014e 52E0     		b	.L21
 567              	.L63:
 290:myble.c       ****             break;
 568              		.loc 1 290 0
 569 0150 5448     		ldr	r0, .L84+164
 570 0152 FFF7FEFF 		bl	printf
 571              	.LVL60:
 291:myble.c       ****         case 0x2A:
 572              		.loc 1 291 0
 573 0156 4EE0     		b	.L21
 574              	.L64:
 293:myble.c       ****             break;
 575              		.loc 1 293 0
 576 0158 5348     		ldr	r0, .L84+168
 577 015a FFF7FEFF 		bl	printf
 578              	.LVL61:
 294:myble.c       ****         case 0x2C:
 579              		.loc 1 294 0
 580 015e 4AE0     		b	.L21
 581              	.L65:
 296:myble.c       ****             break;
 582              		.loc 1 296 0
 583 0160 5248     		ldr	r0, .L84+172
 584 0162 FFF7FEFF 		bl	printf
 585              	.LVL62:
 297:myble.c       ****         case 0x2D:
 586              		.loc 1 297 0
 587 0166 46E0     		b	.L21
 588              	.L66:
 299:myble.c       ****             break;
 589              		.loc 1 299 0
 590 0168 5148     		ldr	r0, .L84+176
 591 016a FFF7FEFF 		bl	printf
 592              	.LVL63:
 300:myble.c       ****         case 0x2E:
 593              		.loc 1 300 0
 594 016e 42E0     		b	.L21
 595              	.L67:
 302:myble.c       ****             break;
 596              		.loc 1 302 0
 597 0170 5048     		ldr	r0, .L84+180
 598 0172 FFF7FEFF 		bl	printf
 599              	.LVL64:
 303:myble.c       ****         case 0x2F:
 600              		.loc 1 303 0
 601 0176 3EE0     		b	.L21
 602              	.L68:
 305:myble.c       ****             break;
ARM GAS  C:\Users\iron\AppData\Local\Temp\ccngss4s.s 			page 20


 603              		.loc 1 305 0
 604 0178 4F48     		ldr	r0, .L84+184
 605 017a FFF7FEFF 		bl	printf
 606              	.LVL65:
 306:myble.c       ****         case 0x30:
 607              		.loc 1 306 0
 608 017e 3AE0     		b	.L21
 609              	.L69:
 308:myble.c       ****             break;
 610              		.loc 1 308 0
 611 0180 4E48     		ldr	r0, .L84+188
 612 0182 FFF7FEFF 		bl	printf
 613              	.LVL66:
 309:myble.c       ****         case 0x32:
 614              		.loc 1 309 0
 615 0186 36E0     		b	.L21
 616              	.L70:
 311:myble.c       ****             break;
 617              		.loc 1 311 0
 618 0188 4D48     		ldr	r0, .L84+192
 619 018a FFF7FEFF 		bl	printf
 620              	.LVL67:
 312:myble.c       ****         case 0x34:
 621              		.loc 1 312 0
 622 018e 32E0     		b	.L21
 623              	.L71:
 314:myble.c       ****             break;
 624              		.loc 1 314 0
 625 0190 4C48     		ldr	r0, .L84+196
 626 0192 FFF7FEFF 		bl	printf
 627              	.LVL68:
 315:myble.c       ****         case 0x35:
 628              		.loc 1 315 0
 629 0196 2EE0     		b	.L21
 630              	.L72:
 317:myble.c       ****             break;
 631              		.loc 1 317 0
 632 0198 4B48     		ldr	r0, .L84+200
 633 019a FFF7FEFF 		bl	printf
 634              	.LVL69:
 318:myble.c       ****         case 0x36:
 635              		.loc 1 318 0
 636 019e 2AE0     		b	.L21
 637              	.L73:
 320:myble.c       ****             break;
 638              		.loc 1 320 0
 639 01a0 4A48     		ldr	r0, .L84+204
 640 01a2 FFF7FEFF 		bl	printf
 641              	.LVL70:
 321:myble.c       ****         case 0x37:
 642              		.loc 1 321 0
 643 01a6 26E0     		b	.L21
 644              	.L74:
 323:myble.c       ****             break;
 645              		.loc 1 323 0
 646 01a8 4948     		ldr	r0, .L84+208
 647 01aa FFF7FEFF 		bl	printf
ARM GAS  C:\Users\iron\AppData\Local\Temp\ccngss4s.s 			page 21


 648              	.LVL71:
 324:myble.c       ****         case 0x38:
 649              		.loc 1 324 0
 650 01ae 22E0     		b	.L21
 651              	.L75:
 326:myble.c       ****             break;
 652              		.loc 1 326 0
 653 01b0 4848     		ldr	r0, .L84+212
 654 01b2 FFF7FEFF 		bl	printf
 655              	.LVL72:
 327:myble.c       ****         case 0x39:
 656              		.loc 1 327 0
 657 01b6 1EE0     		b	.L21
 658              	.L76:
 329:myble.c       ****             break;
 659              		.loc 1 329 0
 660 01b8 4748     		ldr	r0, .L84+216
 661 01ba FFF7FEFF 		bl	printf
 662              	.LVL73:
 330:myble.c       ****         case 0x3A:
 663              		.loc 1 330 0
 664 01be 1AE0     		b	.L21
 665              	.L77:
 332:myble.c       ****             break;
 666              		.loc 1 332 0
 667 01c0 4648     		ldr	r0, .L84+220
 668 01c2 FFF7FEFF 		bl	printf
 669              	.LVL74:
 333:myble.c       ****         case 0x3B:
 670              		.loc 1 333 0
 671 01c6 16E0     		b	.L21
 672              	.L78:
 335:myble.c       ****             break;
 673              		.loc 1 335 0
 674 01c8 4548     		ldr	r0, .L84+224
 675 01ca FFF7FEFF 		bl	printf
 676              	.LVL75:
 336:myble.c       ****         case 0x3C:
 677              		.loc 1 336 0
 678 01ce 12E0     		b	.L21
 679              	.L79:
 338:myble.c       ****             break;
 680              		.loc 1 338 0
 681 01d0 4448     		ldr	r0, .L84+228
 682 01d2 FFF7FEFF 		bl	printf
 683              	.LVL76:
 339:myble.c       ****         case 0x3D:
 684              		.loc 1 339 0
 685 01d6 0EE0     		b	.L21
 686              	.L80:
 341:myble.c       ****             break;
 687              		.loc 1 341 0
 688 01d8 4348     		ldr	r0, .L84+232
 689 01da FFF7FEFF 		bl	printf
 690              	.LVL77:
 342:myble.c       ****         case 0x3E:
 691              		.loc 1 342 0
ARM GAS  C:\Users\iron\AppData\Local\Temp\ccngss4s.s 			page 22


 692 01de 0AE0     		b	.L21
 693              	.L81:
 344:myble.c       ****             break;
 694              		.loc 1 344 0
 695 01e0 4248     		ldr	r0, .L84+236
 696 01e2 FFF7FEFF 		bl	printf
 697              	.LVL78:
 345:myble.c       ****         case 0x3F:
 698              		.loc 1 345 0
 699 01e6 06E0     		b	.L21
 700              	.L82:
 347:myble.c       ****             break;
 701              		.loc 1 347 0
 702 01e8 4148     		ldr	r0, .L84+240
 703 01ea FFF7FEFF 		bl	printf
 704              	.LVL79:
 348:myble.c       ****         case 0x40:
 705              		.loc 1 348 0
 706 01ee 02E0     		b	.L21
 707              	.L83:
 350:myble.c       ****             break;
 708              		.loc 1 350 0
 709 01f0 4048     		ldr	r0, .L84+244
 710 01f2 FFF7FEFF 		bl	printf
 711              	.LVL80:
 712              	.L21:
 353:myble.c       **** }
 713              		.loc 1 353 0
 714 01f6 4048     		ldr	r0, .L84+248
 715 01f8 FFF7FEFF 		bl	puts
 716              	.LVL81:
 354:myble.c       **** 
 717              		.loc 1 354 0
 718              		@ sp needed
 719 01fc 10BD     		pop	{r4, pc}
 720              	.L85:
 721 01fe C046     		.align	2
 722              	.L84:
 723 0200 18000000 		.word	.L23
 724 0204 78000000 		.word	.LC22
 725 0208 8C000000 		.word	.LC24
 726 020c AC000000 		.word	.LC26
 727 0210 C0000000 		.word	.LC28
 728 0214 D0000000 		.word	.LC30
 729 0218 E8000000 		.word	.LC32
 730 021c FC000000 		.word	.LC34
 731 0220 18010000 		.word	.LC36
 732 0224 2C010000 		.word	.LC38
 733 0228 48010000 		.word	.LC40
 734 022c 7C010000 		.word	.LC42
 735 0230 9C010000 		.word	.LC44
 736 0234 B0010000 		.word	.LC46
 737 0238 E0010000 		.word	.LC48
 738 023c 0C020000 		.word	.LC50
 739 0240 3C020000 		.word	.LC52
 740 0244 60020000 		.word	.LC54
 741 0248 88020000 		.word	.LC56
ARM GAS  C:\Users\iron\AppData\Local\Temp\ccngss4s.s 			page 23


 742 024c A8020000 		.word	.LC58
 743 0250 CC020000 		.word	.LC60
 744 0254 08030000 		.word	.LC62
 745 0258 40030000 		.word	.LC64
 746 025c 64030000 		.word	.LC66
 747 0260 78030000 		.word	.LC68
 748 0264 8C030000 		.word	.LC70
 749 0268 9C030000 		.word	.LC72
 750 026c D4030000 		.word	.LC74
 751 0270 E8030000 		.word	.LC76
 752 0274 00040000 		.word	.LC78
 753 0278 18040000 		.word	.LC80
 754 027c 48040000 		.word	.LC82
 755 0280 5C040000 		.word	.LC84
 756 0284 A0040000 		.word	.LC86
 757 0288 B8040000 		.word	.LC88
 758 028c E4040000 		.word	.LC90
 759 0290 04050000 		.word	.LC92
 760 0294 18050000 		.word	.LC94
 761 0298 38050000 		.word	.LC96
 762 029c 54050000 		.word	.LC98
 763 02a0 70050000 		.word	.LC100
 764 02a4 80050000 		.word	.LC102
 765 02a8 A4050000 		.word	.LC104
 766 02ac C4050000 		.word	.LC106
 767 02b0 E0050000 		.word	.LC108
 768 02b4 F0050000 		.word	.LC110
 769 02b8 14060000 		.word	.LC112
 770 02bc 2C060000 		.word	.LC114
 771 02c0 50060000 		.word	.LC116
 772 02c4 64060000 		.word	.LC118
 773 02c8 7C060000 		.word	.LC120
 774 02cc 90060000 		.word	.LC122
 775 02d0 B4060000 		.word	.LC124
 776 02d4 DC060000 		.word	.LC126
 777 02d8 F0060000 		.word	.LC128
 778 02dc 28070000 		.word	.LC130
 779 02e0 38070000 		.word	.LC132
 780 02e4 5C070000 		.word	.LC134
 781 02e8 7C070000 		.word	.LC136
 782 02ec A8070000 		.word	.LC138
 783 02f0 CC070000 		.word	.LC140
 784 02f4 E4070000 		.word	.LC142
 785 02f8 34080000 		.word	.LC144
 786              		.cfi_endproc
 787              	.LFE38:
 788              		.size	print_error_code, .-print_error_code
 789              		.section	.text.ble_callback,"ax",%progbits
 790              		.align	2
 791              		.global	ble_callback
 792              		.code	16
 793              		.thumb_func
 794              		.type	ble_callback, %function
 795              	ble_callback:
 796              	.LFB36:
  24:myble.c       ****     uint8 error_code;
 797              		.loc 1 24 0
ARM GAS  C:\Users\iron\AppData\Local\Temp\ccngss4s.s 			page 24


 798              		.cfi_startproc
 799              		@ args = 0, pretend = 0, frame = 256
 800              		@ frame_needed = 0, uses_anonymous_args = 0
 801              	.LVL82:
 802 0000 30B5     		push	{r4, r5, lr}
 803              		.cfi_def_cfa_offset 12
 804              		.cfi_offset 4, -12
 805              		.cfi_offset 5, -8
 806              		.cfi_offset 14, -4
 807 0002 C1B0     		sub	sp, sp, #260
 808              		.cfi_def_cfa_offset 272
 809 0004 0400     		movs	r4, r0
 810 0006 0D00     		movs	r5, r1
  27:myble.c       ****     
 811              		.loc 1 27 0
 812 0008 FFF7FEFF 		bl	print_ble_state
 813              	.LVL83:
  29:myble.c       ****     {
 814              		.loc 1 29 0
 815 000c 412C     		cmp	r4, #65
 816 000e 00D1     		bne	.LCB702
 817 0010 BBE0     		b	.L86	@long jump
 818              	.LCB702:
 819 0012 10D8     		bhi	.L89
 820 0014 242C     		cmp	r4, #36
 821 0016 00D1     		bne	.LCB706
 822 0018 B7E0     		b	.L86	@long jump
 823              	.LCB706:
 824 001a 04D8     		bhi	.L90
 825 001c 012C     		cmp	r4, #1
 826 001e 15D0     		beq	.L91
 827 0020 202C     		cmp	r4, #32
 828 0022 1ED0     		beq	.L92
 829 0024 B1E0     		b	.L86
 830              	.L90:
 831 0026 2B2C     		cmp	r4, #43
 832 0028 37D0     		beq	.L93
 833 002a 312C     		cmp	r4, #49
 834 002c 57D0     		beq	.L94
 835 002e 282C     		cmp	r4, #40
 836 0030 00D0     		beq	.LCB722
 837 0032 AAE0     		b	.L86	@long jump
 838              	.LCB722:
 839 0034 0EE0     		b	.L95
 840              	.L89:
 841 0036 4C2C     		cmp	r4, #76
 842 0038 62D0     		beq	.L96
 843 003a 04D8     		bhi	.L97
 844 003c 432C     		cmp	r4, #67
 845 003e 57D0     		beq	.L98
 846 0040 442C     		cmp	r4, #68
 847 0042 59D0     		beq	.L99
 848 0044 A1E0     		b	.L86
 849              	.L97:
 850 0046 522C     		cmp	r4, #82
 851 0048 62D0     		beq	.L100
 852 004a 9EE0     		b	.L86
ARM GAS  C:\Users\iron\AppData\Local\Temp\ccngss4s.s 			page 25


 853              	.L91:
 854              	.LBB4:
  33:myble.c       **** #endif
 855              		.loc 1 33 0
 856 004c 0020     		movs	r0, #0
 857 004e FFF7FEFF 		bl	CyBle_GapcStartScan
 858              	.LVL84:
  38:myble.c       ****         case CYBLE_EVT_GAP_DEVICE_DISCONNECTED:
 859              		.loc 1 38 0
 860 0052 9AE0     		b	.L86
 861              	.L95:
  40:myble.c       ****             print_error_code(error_code);
 862              		.loc 1 40 0
 863 0054 2878     		ldrb	r0, [r5]
 864              	.LVL85:
  41:myble.c       **** #if (CYBLE_GAP_ROLE_CENTRAL)
 865              		.loc 1 41 0
 866 0056 FFF7FEFF 		bl	print_error_code
 867              	.LVL86:
  43:myble.c       **** #endif
 868              		.loc 1 43 0
 869 005a 0020     		movs	r0, #0
 870 005c FFF7FEFF 		bl	CyBle_GapcStartScan
 871              	.LVL87:
  48:myble.c       **** #if (CYBLE_GAP_ROLE_CENTRAL)
 872              		.loc 1 48 0
 873 0060 93E0     		b	.L86
 874              	.L92:
  51:myble.c       ****             CYBLE_GAPC_ADV_REPORT_T adv_report;
 875              		.loc 1 51 0
 876 0062 4B48     		ldr	r0, .L103
 877 0064 FFF7FEFF 		bl	puts
 878              	.LVL88:
  53:myble.c       ****         
 879              		.loc 1 53 0
 880 0068 1422     		movs	r2, #20
 881 006a 2900     		movs	r1, r5
 882 006c 02A8     		add	r0, sp, #8
 883 006e FFF7FEFF 		bl	memcpy
 884              	.LVL89:
  55:myble.c       ****             {
 885              		.loc 1 55 0
 886 0072 0398     		ldr	r0, [sp, #12]
 887 0074 FFF7FEFF 		bl	is_peripheral
 888              	.LVL90:
 889 0078 0128     		cmp	r0, #1
 890 007a 00D0     		beq	.LCB780
 891 007c 85E0     		b	.L86	@long jump
 892              	.LCB780:
  57:myble.c       ****                 
 893              		.loc 1 57 0
 894 007e FFF7FEFF 		bl	CyBle_GapcStopScan
 895              	.LVL91:
  59:myble.c       ****                 bd_addr.type = adv_report.peerAddrType;
 896              		.loc 1 59 0
 897 0082 039B     		ldr	r3, [sp, #12]
 898 0084 0193     		str	r3, [sp, #4]
ARM GAS  C:\Users\iron\AppData\Local\Temp\ccngss4s.s 			page 26


 899 0086 434C     		ldr	r4, .L103+4
 900              	.LVL92:
 901 0088 0622     		movs	r2, #6
 902 008a 1900     		movs	r1, r3
 903 008c 2000     		movs	r0, r4
 904 008e FFF7FEFF 		bl	memcpy
 905              	.LVL93:
  60:myble.c       ****             }
 906              		.loc 1 60 0
 907 0092 02AB     		add	r3, sp, #8
 908 0094 5B78     		ldrb	r3, [r3, #1]
 909 0096 A371     		strb	r3, [r4, #6]
 910 0098 77E0     		b	.L86
 911              	.LVL94:
 912              	.L93:
  64:myble.c       ****             
 913              		.loc 1 64 0
 914 009a 3F48     		ldr	r0, .L103+8
 915 009c FFF7FEFF 		bl	puts
 916              	.LVL95:
  66:myble.c       ****             {
 917              		.loc 1 66 0
 918 00a0 3E4B     		ldr	r3, .L103+12
 919 00a2 1B78     		ldrb	r3, [r3]
 920 00a4 052B     		cmp	r3, #5
 921 00a6 70D1     		bne	.L86
  68:myble.c       ****                 for (uint8 i = 0; i < CYBLE_GAP_BD_ADDR_SIZE; i++)
 922              		.loc 1 68 0
 923 00a8 3D48     		ldr	r0, .L103+16
 924 00aa FFF7FEFF 		bl	printf
 925              	.LVL96:
 926              	.LBB5:
  69:myble.c       ****                 {
 927              		.loc 1 69 0
 928 00ae 0024     		movs	r4, #0
 929              	.LVL97:
 930 00b0 08E0     		b	.L101
 931              	.LVL98:
 932              	.L102:
  71:myble.c       ****                 }
 933              		.loc 1 71 0 discriminator 3
 934 00b2 0523     		movs	r3, #5
 935 00b4 1B1B     		subs	r3, r3, r4
 936 00b6 374A     		ldr	r2, .L103+4
 937 00b8 D15C     		ldrb	r1, [r2, r3]
 938 00ba 3A48     		ldr	r0, .L103+20
 939 00bc FFF7FEFF 		bl	printf
 940              	.LVL99:
  69:myble.c       ****                 {
 941              		.loc 1 69 0 discriminator 3
 942 00c0 0134     		adds	r4, r4, #1
 943              	.LVL100:
 944 00c2 E4B2     		uxtb	r4, r4
 945              	.LVL101:
 946              	.L101:
  69:myble.c       ****                 {
 947              		.loc 1 69 0 is_stmt 0 discriminator 1
ARM GAS  C:\Users\iron\AppData\Local\Temp\ccngss4s.s 			page 27


 948 00c4 052C     		cmp	r4, #5
 949 00c6 F4D9     		bls	.L102
 950              	.LBE5:
  73:myble.c       ****                 printf("result: %X\r\n", CyBle_GapcConnectDevice(&bd_addr));
 951              		.loc 1 73 0 is_stmt 1
 952 00c8 3748     		ldr	r0, .L103+24
 953 00ca FFF7FEFF 		bl	puts
 954              	.LVL102:
  74:myble.c       ****             }
 955              		.loc 1 74 0
 956 00ce 3148     		ldr	r0, .L103+4
 957 00d0 FFF7FEFF 		bl	CyBle_GapcConnectDevice
 958              	.LVL103:
 959 00d4 0100     		movs	r1, r0
 960 00d6 3548     		ldr	r0, .L103+28
 961 00d8 FFF7FEFF 		bl	printf
 962              	.LVL104:
 963 00dc 55E0     		b	.L86
 964              	.LVL105:
 965              	.L94:
  81:myble.c       **** #if (CYBLE_GAP_ROLE_CENTRAL)
 966              		.loc 1 81 0
 967 00de 3448     		ldr	r0, .L103+32
 968 00e0 FFF7FEFF 		bl	puts
 969              	.LVL106:
  83:myble.c       **** #endif
 970              		.loc 1 83 0
 971 00e4 334B     		ldr	r3, .L103+36
 972 00e6 1878     		ldrb	r0, [r3]
 973 00e8 3349     		ldr	r1, .L103+40
 974 00ea FFF7FEFF 		bl	CyBle_GapAuthReq
 975              	.LVL107:
  85:myble.c       ****         case CYBLE_EVT_GAP_AUTH_COMPLETE:
 976              		.loc 1 85 0
 977 00ee 4CE0     		b	.L86
 978              	.L98:
  98:myble.c       **** #endif
 979              		.loc 1 98 0
 980 00f0 0122     		movs	r2, #1
 981 00f2 324B     		ldr	r3, .L103+44
 982 00f4 1A70     		strb	r2, [r3]
 100:myble.c       ****         case CYBLE_EVT_GATTC_XCHNG_MTU_RSP:
 983              		.loc 1 100 0
 984 00f6 48E0     		b	.L86
 985              	.L99:
 102:myble.c       **** #if (CYBLE_GAP_ROLE_PERIPHERAL)
 986              		.loc 1 102 0
 987 00f8 3148     		ldr	r0, .L103+48
 988 00fa FFF7FEFF 		bl	puts
 989              	.LVL108:
 106:myble.c       ****         case CYBLE_EVT_GATTS_WRITE_REQ:
 990              		.loc 1 106 0
 991 00fe 44E0     		b	.L86
 992              	.L96:
 108:myble.c       ****             break;
 993              		.loc 1 108 0
 994 0100 2C4A     		ldr	r2, .L103+36
ARM GAS  C:\Users\iron\AppData\Local\Temp\ccngss4s.s 			page 28


 995 0102 1378     		ldrb	r3, [r2]
 996 0104 5078     		ldrb	r0, [r2, #1]
 997 0106 0002     		lsls	r0, r0, #8
 998 0108 1843     		orrs	r0, r3
 999 010a FFF7FEFF 		bl	CyBle_GattsWriteRsp
 1000              	.LVL109:
 109:myble.c       ****         case CYBLE_EVT_GATTC_WRITE_RSP:
 1001              		.loc 1 109 0
 1002 010e 3CE0     		b	.L86
 1003              	.L100:
 113:myble.c       ****             //memcpy(ble_mtu_recv, recv.handleValPair.value.val, recv.handleValPair.value.len);
 1004              		.loc 1 113 0
 1005 0110 204A     		ldr	r2, .L103+4
 1006 0112 1300     		movs	r3, r2
 1007 0114 0833     		adds	r3, r3, #8
 1008 0116 2900     		movs	r1, r5
 1009 0118 31C9     		ldmia	r1!, {r0, r4, r5}
 1010 011a 31C3     		stmia	r3!, {r0, r4, r5}
 1011              	.LVL110:
 1012 011c 0968     		ldr	r1, [r1]
 1013              	.LVL111:
 1014 011e 1960     		str	r1, [r3]
 116:myble.c       ****             
 1015              		.loc 1 116 0
 1016 0120 D168     		ldr	r1, [r2, #12]
 1017 0122 F822     		movs	r2, #248
 1018 0124 02A8     		add	r0, sp, #8
 1019 0126 FFF7FEFF 		bl	memcpy
 1020              	.LVL112:
 118:myble.c       ****             printf("gyr=(%d %d %d)\r\n", imu.gyr[0], imu.gyr[1], imu.gyr[2]);
 1021              		.loc 1 118 0
 1022 012a 02AB     		add	r3, sp, #8
 1023 012c 0021     		movs	r1, #0
 1024 012e 595E     		ldrsh	r1, [r3, r1]
 1025 0130 02AB     		add	r3, sp, #8
 1026 0132 0222     		movs	r2, #2
 1027 0134 9A5E     		ldrsh	r2, [r3, r2]
 1028 0136 02AB     		add	r3, sp, #8
 1029 0138 0420     		movs	r0, #4
 1030 013a 1B5E     		ldrsh	r3, [r3, r0]
 1031 013c 2148     		ldr	r0, .L103+52
 1032 013e FFF7FEFF 		bl	printf
 1033              	.LVL113:
 119:myble.c       ****             printf("acc=(%d %d %d)\r\n", imu.acc[0], imu.acc[1], imu.acc[2]);
 1034              		.loc 1 119 0
 1035 0142 02AB     		add	r3, sp, #8
 1036 0144 0621     		movs	r1, #6
 1037 0146 595E     		ldrsh	r1, [r3, r1]
 1038 0148 02AB     		add	r3, sp, #8
 1039 014a 0822     		movs	r2, #8
 1040 014c 9A5E     		ldrsh	r2, [r3, r2]
 1041 014e 02AB     		add	r3, sp, #8
 1042 0150 0A20     		movs	r0, #10
 1043 0152 1B5E     		ldrsh	r3, [r3, r0]
 1044 0154 1C48     		ldr	r0, .L103+56
 1045 0156 FFF7FEFF 		bl	printf
 1046              	.LVL114:
ARM GAS  C:\Users\iron\AppData\Local\Temp\ccngss4s.s 			page 29


 120:myble.c       ****             printf("mag=(%d %d %d)\r\n", imu.mag[0], imu.mag[1], imu.mag[2]);
 1047              		.loc 1 120 0
 1048 015a 02AB     		add	r3, sp, #8
 1049 015c 0C21     		movs	r1, #12
 1050 015e 595E     		ldrsh	r1, [r3, r1]
 1051 0160 02AB     		add	r3, sp, #8
 1052 0162 0E22     		movs	r2, #14
 1053 0164 9A5E     		ldrsh	r2, [r3, r2]
 1054 0166 02AB     		add	r3, sp, #8
 1055 0168 1020     		movs	r0, #16
 1056 016a 1B5E     		ldrsh	r3, [r3, r0]
 1057 016c 1748     		ldr	r0, .L103+60
 1058 016e FFF7FEFF 		bl	printf
 1059              	.LVL115:
 121:myble.c       ****             
 1060              		.loc 1 121 0
 1061 0172 02AB     		add	r3, sp, #8
 1062 0174 1221     		movs	r1, #18
 1063 0176 595E     		ldrsh	r1, [r3, r1]
 1064 0178 02AB     		add	r3, sp, #8
 1065 017a 1422     		movs	r2, #20
 1066 017c 9A5E     		ldrsh	r2, [r3, r2]
 1067 017e 02AB     		add	r3, sp, #8
 1068 0180 1620     		movs	r0, #22
 1069 0182 1B5E     		ldrsh	r3, [r3, r0]
 1070 0184 1248     		ldr	r0, .L103+64
 1071 0186 FFF7FEFF 		bl	printf
 1072              	.LVL116:
 1073              	.L86:
 1074              	.LBE4:
 125:myble.c       **** 
 1075              		.loc 1 125 0
 1076 018a 41B0     		add	sp, sp, #260
 1077              		@ sp needed
 1078 018c 30BD     		pop	{r4, r5, pc}
 1079              	.L104:
 1080 018e C046     		.align	2
 1081              	.L103:
 1082 0190 38080000 		.word	.LC146
 1083 0194 00000000 		.word	.LANCHOR1
 1084 0198 60080000 		.word	.LC149
 1085 019c 00000000 		.word	cyBle_state
 1086 01a0 80080000 		.word	.LC152
 1087 01a4 8C080000 		.word	.LC154
 1088 01a8 34080000 		.word	.LC144
 1089 01ac 90080000 		.word	.LC157
 1090 01b0 A0080000 		.word	.LC159
 1091 01b4 00000000 		.word	cyBle_connHandle
 1092 01b8 00000000 		.word	cyBle_authInfo
 1093 01bc 00000000 		.word	.LANCHOR2
 1094 01c0 C8080000 		.word	.LC164
 1095 01c4 D0080000 		.word	.LC166
 1096 01c8 E4080000 		.word	.LC168
 1097 01cc F8080000 		.word	.LC170
 1098 01d0 0C090000 		.word	.LC172
 1099              		.cfi_endproc
 1100              	.LFE36:
ARM GAS  C:\Users\iron\AppData\Local\Temp\ccngss4s.s 			page 30


 1101              		.size	ble_callback, .-ble_callback
 1102              		.global	ble_mtu_req
 1103              		.section	.rodata
 1104              		.align	2
 1105              		.set	.LANCHOR0,. + 0
 1106              		.type	peripheral_addr, %object
 1107              		.size	peripheral_addr, 6
 1108              	peripheral_addr:
 1109 011c 01       		.byte	1
 1110 011d 00       		.byte	0
 1111 011e 00       		.byte	0
 1112 011f 50       		.byte	80
 1113 0120 A0       		.byte	-96
 1114 0121 00       		.byte	0
 1115              		.data
 1116              		.set	.LANCHOR2,. + 0
 1117              		.type	ble_mtu_req, %object
 1118              		.size	ble_mtu_req, 1
 1119              	ble_mtu_req:
 1120 0000 01       		.byte	1
 1121              		.section	.rodata.str1.4,"aMS",%progbits,1
 1122              		.align	2
 1123              	.LC1:
 1124 0000 424C4520 		.ascii	"BLE Callback, evt(%lX), state(\000"
 1124      43616C6C 
 1124      6261636B 
 1124      2C206576 
 1124      7428256C 
 1125 001f 00       		.space	1
 1126              	.LC5:
 1127 0020 73746F70 		.ascii	"stopped\000"
 1127      70656400 
 1128              	.LC7:
 1129 0028 696E6974 		.ascii	"initializing\000"
 1129      69616C69 
 1129      7A696E67 
 1129      00
 1130 0035 000000   		.space	3
 1131              	.LC9:
 1132 0038 636F6E6E 		.ascii	"connected\000"
 1132      65637465 
 1132      6400
 1133 0042 0000     		.space	2
 1134              	.LC11:
 1135 0044 7363616E 		.ascii	"scanning\000"
 1135      6E696E67 
 1135      00
 1136 004d 000000   		.space	3
 1137              	.LC13:
 1138 0050 636F6E6E 		.ascii	"connecting\000"
 1138      65637469 
 1138      6E6700
 1139 005b 00       		.space	1
 1140              	.LC15:
 1141 005c 64697363 		.ascii	"disconnected\000"
 1141      6F6E6E65 
 1141      63746564 
ARM GAS  C:\Users\iron\AppData\Local\Temp\ccngss4s.s 			page 31


 1141      00
 1142 0069 000000   		.space	3
 1143              	.LC17:
 1144 006c 756E6B6E 		.ascii	"unknown\000"
 1144      6F776E00 
 1145              	.LC19:
 1146 0074 290D00   		.ascii	")\015\000"
 1147 0077 00       		.space	1
 1148              	.LC22:
 1149 0078 556E6B6E 		.ascii	"Unknown HCI Command\000"
 1149      6F776E20 
 1149      48434920 
 1149      436F6D6D 
 1149      616E6400 
 1150              	.LC24:
 1151 008c 556E6B6E 		.ascii	"Unknown Connection Identifier\000"
 1151      6F776E20 
 1151      436F6E6E 
 1151      65637469 
 1151      6F6E2049 
 1152 00aa 0000     		.space	2
 1153              	.LC26:
 1154 00ac 48617264 		.ascii	"Hardware Failure\000"
 1154      77617265 
 1154      20466169 
 1154      6C757265 
 1154      00
 1155 00bd 000000   		.space	3
 1156              	.LC28:
 1157 00c0 50616765 		.ascii	"Page Timeout\000"
 1157      2054696D 
 1157      656F7574 
 1157      00
 1158 00cd 000000   		.space	3
 1159              	.LC30:
 1160 00d0 41757468 		.ascii	"Authentication Failure\000"
 1160      656E7469 
 1160      63617469 
 1160      6F6E2046 
 1160      61696C75 
 1161 00e7 00       		.space	1
 1162              	.LC32:
 1163 00e8 50494E20 		.ascii	"PIN or key Missing\000"
 1163      6F72206B 
 1163      6579204D 
 1163      69737369 
 1163      6E6700
 1164 00fb 00       		.space	1
 1165              	.LC34:
 1166 00fc 4D656D6F 		.ascii	"Memory Capacity Exceeded\000"
 1166      72792043 
 1166      61706163 
 1166      69747920 
 1166      45786365 
 1167 0115 000000   		.space	3
 1168              	.LC36:
 1169 0118 436F6E6E 		.ascii	"Connection Timeout\000"
ARM GAS  C:\Users\iron\AppData\Local\Temp\ccngss4s.s 			page 32


 1169      65637469 
 1169      6F6E2054 
 1169      696D656F 
 1169      757400
 1170 012b 00       		.space	1
 1171              	.LC38:
 1172 012c 436F6E6E 		.ascii	"Connection Limit Exceeded\000"
 1172      65637469 
 1172      6F6E204C 
 1172      696D6974 
 1172      20457863 
 1173 0146 0000     		.space	2
 1174              	.LC40:
 1175 0148 53796E63 		.ascii	"Synchronous Connection Limit to a Device Exceeded\000"
 1175      68726F6E 
 1175      6F757320 
 1175      436F6E6E 
 1175      65637469 
 1176 017a 0000     		.space	2
 1177              	.LC42:
 1178 017c 41434C20 		.ascii	"ACL Connection Already Exists\000"
 1178      436F6E6E 
 1178      65637469 
 1178      6F6E2041 
 1178      6C726561 
 1179 019a 0000     		.space	2
 1180              	.LC44:
 1181 019c 436F6D6D 		.ascii	"Command Disallowed\000"
 1181      616E6420 
 1181      44697361 
 1181      6C6C6F77 
 1181      656400
 1182 01af 00       		.space	1
 1183              	.LC46:
 1184 01b0 436F6E6E 		.ascii	"Connection Rejected due to Limited Resources\000"
 1184      65637469 
 1184      6F6E2052 
 1184      656A6563 
 1184      74656420 
 1185 01dd 000000   		.space	3
 1186              	.LC48:
 1187 01e0 436F6E6E 		.ascii	"Connection Rejected due to Security Reasons\000"
 1187      65637469 
 1187      6F6E2052 
 1187      656A6563 
 1187      74656420 
 1188              	.LC50:
 1189 020c 436F6E6E 		.ascii	"Connection Rejected due to Unacceptable BD_ADDR\000"
 1189      65637469 
 1189      6F6E2052 
 1189      656A6563 
 1189      74656420 
 1190              	.LC52:
 1191 023c 436F6E6E 		.ascii	"Connection Accept Timeout Exceeded\000"
 1191      65637469 
 1191      6F6E2041 
 1191      63636570 
ARM GAS  C:\Users\iron\AppData\Local\Temp\ccngss4s.s 			page 33


 1191      74205469 
 1192 025f 00       		.space	1
 1193              	.LC54:
 1194 0260 556E7375 		.ascii	"Unsupported Feature or Parameter Value\000"
 1194      70706F72 
 1194      74656420 
 1194      46656174 
 1194      75726520 
 1195 0287 00       		.space	1
 1196              	.LC56:
 1197 0288 496E7661 		.ascii	"Invalid HCI Command Parameters\000"
 1197      6C696420 
 1197      48434920 
 1197      436F6D6D 
 1197      616E6420 
 1198 02a7 00       		.space	1
 1199              	.LC58:
 1200 02a8 52656D6F 		.ascii	"Remote User Terminated Connection\000"
 1200      74652055 
 1200      73657220 
 1200      5465726D 
 1200      696E6174 
 1201 02ca 0000     		.space	2
 1202              	.LC60:
 1203 02cc 52656D6F 		.ascii	"Remote Device Terminated Connection due to Low Reso"
 1203      74652044 
 1203      65766963 
 1203      65205465 
 1203      726D696E 
 1204 02ff 75726365 		.ascii	"urces\000"
 1204      7300
 1205 0305 000000   		.space	3
 1206              	.LC62:
 1207 0308 52656D6F 		.ascii	"Remote Device Terminated Connection due to Power Of"
 1207      74652044 
 1207      65766963 
 1207      65205465 
 1207      726D696E 
 1208 033b 6600     		.ascii	"f\000"
 1209 033d 000000   		.space	3
 1210              	.LC64:
 1211 0340 436F6E6E 		.ascii	"Connection Terminated by Local Host\000"
 1211      65637469 
 1211      6F6E2054 
 1211      65726D69 
 1211      6E617465 
 1212              	.LC66:
 1213 0364 52657065 		.ascii	"Repeated Attempts\000"
 1213      61746564 
 1213      20417474 
 1213      656D7074 
 1213      7300
 1214 0376 0000     		.space	2
 1215              	.LC68:
 1216 0378 50616972 		.ascii	"Pairing not Allowed\000"
 1216      696E6720 
 1216      6E6F7420 
ARM GAS  C:\Users\iron\AppData\Local\Temp\ccngss4s.s 			page 34


 1216      416C6C6F 
 1216      77656400 
 1217              	.LC70:
 1218 038c 556E6B6E 		.ascii	"Unknown LMP PDU\000"
 1218      6F776E20 
 1218      4C4D5020 
 1218      50445500 
 1219              	.LC72:
 1220 039c 556E7375 		.ascii	"Unsupported Remote Feature / Unsupported LMP Featur"
 1220      70706F72 
 1220      74656420 
 1220      52656D6F 
 1220      74652046 
 1221 03cf 6500     		.ascii	"e\000"
 1222 03d1 000000   		.space	3
 1223              	.LC74:
 1224 03d4 53434F20 		.ascii	"SCO Offset Rejected\000"
 1224      4F666673 
 1224      65742052 
 1224      656A6563 
 1224      74656400 
 1225              	.LC76:
 1226 03e8 53434F20 		.ascii	"SCO Interval Rejected\000"
 1226      496E7465 
 1226      7276616C 
 1226      2052656A 
 1226      65637465 
 1227 03fe 0000     		.space	2
 1228              	.LC78:
 1229 0400 53434F20 		.ascii	"SCO Air Mode Rejected\000"
 1229      41697220 
 1229      4D6F6465 
 1229      2052656A 
 1229      65637465 
 1230 0416 0000     		.space	2
 1231              	.LC80:
 1232 0418 496E7661 		.ascii	"Invalid LMP Parameters / Invalid LL Parameters\000"
 1232      6C696420 
 1232      4C4D5020 
 1232      50617261 
 1232      6D657465 
 1233 0447 00       		.space	1
 1234              	.LC82:
 1235 0448 556E7370 		.ascii	"Unspecified Error\000"
 1235      65636966 
 1235      69656420 
 1235      4572726F 
 1235      7200
 1236 045a 0000     		.space	2
 1237              	.LC84:
 1238 045c 556E7375 		.ascii	"Unsupported LMP Parameter Value / Unsupportred LL P"
 1238      70706F72 
 1238      74656420 
 1238      4C4D5020 
 1238      50617261 
 1239 048f 6172616D 		.ascii	"arameter Value\000"
 1239      65746572 
ARM GAS  C:\Users\iron\AppData\Local\Temp\ccngss4s.s 			page 35


 1239      2056616C 
 1239      756500
 1240 049e 0000     		.space	2
 1241              	.LC86:
 1242 04a0 526F6C65 		.ascii	"Role Change Not Allowed\000"
 1242      20436861 
 1242      6E676520 
 1242      4E6F7420 
 1242      416C6C6F 
 1243              	.LC88:
 1244 04b8 4C4D5020 		.ascii	"LMP Response Timeout / LL Response Timeout\000"
 1244      52657370 
 1244      6F6E7365 
 1244      2054696D 
 1244      656F7574 
 1245 04e3 00       		.space	1
 1246              	.LC90:
 1247 04e4 4C4D5020 		.ascii	"LMP Error Transaction Collision\000"
 1247      4572726F 
 1247      72205472 
 1247      616E7361 
 1247      6374696F 
 1248              	.LC92:
 1249 0504 4C4D5020 		.ascii	"LMP PDU Not Allowed\000"
 1249      50445520 
 1249      4E6F7420 
 1249      416C6C6F 
 1249      77656400 
 1250              	.LC94:
 1251 0518 456E6379 		.ascii	"Encyption Mode Not Acceptable\000"
 1251      7074696F 
 1251      6E204D6F 
 1251      6465204E 
 1251      6F742041 
 1252 0536 0000     		.space	2
 1253              	.LC96:
 1254 0538 4C696E6B 		.ascii	"Link Key cannot be Changed\000"
 1254      204B6579 
 1254      2063616E 
 1254      6E6F7420 
 1254      62652043 
 1255 0553 00       		.space	1
 1256              	.LC98:
 1257 0554 52657175 		.ascii	"Required QoS Not Supported\000"
 1257      69726564 
 1257      20516F53 
 1257      204E6F74 
 1257      20537570 
 1258 056f 00       		.space	1
 1259              	.LC100:
 1260 0570 496E7374 		.ascii	"Instant Passed\000"
 1260      616E7420 
 1260      50617373 
 1260      656400
 1261 057f 00       		.space	1
 1262              	.LC102:
 1263 0580 50616972 		.ascii	"Pairing with Unit Key Not Supported\000"
ARM GAS  C:\Users\iron\AppData\Local\Temp\ccngss4s.s 			page 36


 1263      696E6720 
 1263      77697468 
 1263      20556E69 
 1263      74204B65 
 1264              	.LC104:
 1265 05a4 44696666 		.ascii	"Different Transaction Collision\000"
 1265      6572656E 
 1265      74205472 
 1265      616E7361 
 1265      6374696F 
 1266              	.LC106:
 1267 05c4 516F5320 		.ascii	"QoS Unacceptable Parameter\000"
 1267      556E6163 
 1267      63657074 
 1267      61626C65 
 1267      20506172 
 1268 05df 00       		.space	1
 1269              	.LC108:
 1270 05e0 516F5320 		.ascii	"QoS Rejected\000"
 1270      52656A65 
 1270      63746564 
 1270      00
 1271 05ed 000000   		.space	3
 1272              	.LC110:
 1273 05f0 4368616E 		.ascii	"Channel Assessment Not Supported\000"
 1273      6E656C20 
 1273      41737365 
 1273      73736D65 
 1273      6E74204E 
 1274 0611 000000   		.space	3
 1275              	.LC112:
 1276 0614 496E7375 		.ascii	"Insufficient Security\000"
 1276      66666963 
 1276      69656E74 
 1276      20536563 
 1276      75726974 
 1277 062a 0000     		.space	2
 1278              	.LC114:
 1279 062c 50617261 		.ascii	"Parameter out of Mandatory Range\000"
 1279      6D657465 
 1279      72206F75 
 1279      74206F66 
 1279      204D616E 
 1280 064d 000000   		.space	3
 1281              	.LC116:
 1282 0650 526F6C65 		.ascii	"Role swith Pending\000"
 1282      20737769 
 1282      74682050 
 1282      656E6469 
 1282      6E6700
 1283 0663 00       		.space	1
 1284              	.LC118:
 1285 0664 52657365 		.ascii	"Reserved Slot Violation\000"
 1285      72766564 
 1285      20536C6F 
 1285      74205669 
 1285      6F6C6174 
ARM GAS  C:\Users\iron\AppData\Local\Temp\ccngss4s.s 			page 37


 1286              	.LC120:
 1287 067c 526F6C65 		.ascii	"Role Switch Failed\000"
 1287      20537769 
 1287      74636820 
 1287      4661696C 
 1287      656400
 1288 068f 00       		.space	1
 1289              	.LC122:
 1290 0690 45787465 		.ascii	"Extended Inquiry Response Too Large\000"
 1290      6E646564 
 1290      20496E71 
 1290      75697279 
 1290      20526573 
 1291              	.LC124:
 1292 06b4 53696D70 		.ascii	"Simple Pairing Not Supported By Host\000"
 1292      6C652050 
 1292      61697269 
 1292      6E67204E 
 1292      6F742053 
 1293 06d9 000000   		.space	3
 1294              	.LC126:
 1295 06dc 486F7374 		.ascii	"Host Busy-Pairing\000"
 1295      20427573 
 1295      792D5061 
 1295      6972696E 
 1295      6700
 1296 06ee 0000     		.space	2
 1297              	.LC128:
 1298 06f0 436F6E6E 		.ascii	"Connection Rejected Due To Not Suitable Channel Fou"
 1298      65637469 
 1298      6F6E2052 
 1298      656A6563 
 1298      74656420 
 1299 0723 6E6400   		.ascii	"nd\000"
 1300 0726 0000     		.space	2
 1301              	.LC130:
 1302 0728 436F6E74 		.ascii	"Controller Busy\000"
 1302      726F6C6C 
 1302      65722042 
 1302      75737900 
 1303              	.LC132:
 1304 0738 556E6163 		.ascii	"Unacceptable Connection Parameters\000"
 1304      63657074 
 1304      61626C65 
 1304      20436F6E 
 1304      6E656374 
 1305 075b 00       		.space	1
 1306              	.LC134:
 1307 075c 44697265 		.ascii	"Directed Advertising Timeout\000"
 1307      63746564 
 1307      20416476 
 1307      65727469 
 1307      73696E67 
 1308 0779 000000   		.space	3
 1309              	.LC136:
 1310 077c 436F6E6E 		.ascii	"Connection Terminated Due To MIC Failure\000"
 1310      65637469 
ARM GAS  C:\Users\iron\AppData\Local\Temp\ccngss4s.s 			page 38


 1310      6F6E2054 
 1310      65726D69 
 1310      6E617465 
 1311 07a5 000000   		.space	3
 1312              	.LC138:
 1313 07a8 436F6E6E 		.ascii	"Connection Failed To Be Established\000"
 1313      65637469 
 1313      6F6E2046 
 1313      61696C65 
 1313      6420546F 
 1314              	.LC140:
 1315 07cc 4D414320 		.ascii	"MAC Connection Failed\000"
 1315      436F6E6E 
 1315      65637469 
 1315      6F6E2046 
 1315      61696C65 
 1316 07e2 0000     		.space	2
 1317              	.LC142:
 1318 07e4 436F6172 		.ascii	"Coarse Clock Adjustment Rejected but Will Try to Ad"
 1318      73652043 
 1318      6C6F636B 
 1318      2041646A 
 1318      7573746D 
 1319 0817 6A757374 		.ascii	"justing Using Clock Dragging\000"
 1319      696E6720 
 1319      5573696E 
 1319      6720436C 
 1319      6F636B20 
 1320              	.LC144:
 1321 0834 0D00     		.ascii	"\015\000"
 1322 0836 0000     		.space	2
 1323              	.LC146:
 1324 0838 4359424C 		.ascii	"CYBLE_EVT_GAPC_SCAN_PROGRESS_RESULT\015\000"
 1324      455F4556 
 1324      545F4741 
 1324      50435F53 
 1324      43414E5F 
 1325 085d 000000   		.space	3
 1326              	.LC149:
 1327 0860 4359424C 		.ascii	"CYBLE_EVT_GAPC_SCAN_START_STOP\015\000"
 1327      455F4556 
 1327      545F4741 
 1327      50435F53 
 1327      43414E5F 
 1328              	.LC152:
 1329 0880 436F6E6E 		.ascii	"Connect to \000"
 1329      65637420 
 1329      746F2000 
 1330              	.LC154:
 1331 088c 25582000 		.ascii	"%X \000"
 1332              	.LC157:
 1333 0890 72657375 		.ascii	"result: %X\015\012\000"
 1333      6C743A20 
 1333      25580D0A 
 1333      00
 1334 089d 000000   		.space	3
 1335              	.LC159:
ARM GAS  C:\Users\iron\AppData\Local\Temp\ccngss4s.s 			page 39


 1336 08a0 4359424C 		.ascii	"CYBLE_EVT_GAP_ENHANCE_CONN_COMPLETE\015\000"
 1336      455F4556 
 1336      545F4741 
 1336      505F454E 
 1336      48414E43 
 1337 08c5 000000   		.space	3
 1338              	.LC164:
 1339 08c8 54455354 		.ascii	"TEST\015\000"
 1339      0D00
 1340 08ce 0000     		.space	2
 1341              	.LC166:
 1342 08d0 736F663D 		.ascii	"sof=(%d %d %d)\015\012\000"
 1342      28256420 
 1342      25642025 
 1342      64290D0A 
 1342      00
 1343 08e1 000000   		.space	3
 1344              	.LC168:
 1345 08e4 6779723D 		.ascii	"gyr=(%d %d %d)\015\012\000"
 1345      28256420 
 1345      25642025 
 1345      64290D0A 
 1345      00
 1346 08f5 000000   		.space	3
 1347              	.LC170:
 1348 08f8 6163633D 		.ascii	"acc=(%d %d %d)\015\012\000"
 1348      28256420 
 1348      25642025 
 1348      64290D0A 
 1348      00
 1349 0909 000000   		.space	3
 1350              	.LC172:
 1351 090c 6D61673D 		.ascii	"mag=(%d %d %d)\015\012\000"
 1351      28256420 
 1351      25642025 
 1351      64290D0A 
 1351      00
 1352              		.bss
 1353              		.align	2
 1354              		.set	.LANCHOR1,. + 0
 1355              		.type	bd_addr, %object
 1356              		.size	bd_addr, 7
 1357              	bd_addr:
 1358 0000 00000000 		.space	7
 1358      000000
 1359 0007 00       		.space	1
 1360              		.type	recv, %object
 1361              		.size	recv, 16
 1362              	recv:
 1363 0008 00000000 		.space	16
 1363      00000000 
 1363      00000000 
 1363      00000000 
 1364              		.text
 1365              	.Letext0:
 1366              		.file 2 "Generated_Source\\PSoC4/cytypes.h"
 1367              		.file 3 "Generated_Source\\PSoC4/BLE_Stack.h"
ARM GAS  C:\Users\iron\AppData\Local\Temp\ccngss4s.s 			page 40


 1368              		.file 4 "Generated_Source\\PSoC4/BLE_StackGap.h"
 1369              		.file 5 "Generated_Source\\PSoC4/BLE_StackGatt.h"
 1370              		.file 6 "Generated_Source\\PSoC4/BLE_StackGattClient.h"
 1371              		.file 7 "Generated_Source\\PSoC4/BLE_eventHandler.h"
 1372              		.file 8 "imu.h"
 1373              		.file 9 "Generated_Source\\PSoC4/BLE.h"
 1374              		.file 10 "d:\\program files (x86)\\cypress\\psoc creator\\4.2\\psoc creator\\import\\gnu\\arm\\5.4
 1375              		.file 11 "Generated_Source\\PSoC4/BLE_StackGattServer.h"
 1376              		.file 12 "<built-in>"